;******************************************************************************
;* TI ARM C/C++ Codegen                                             PC v5.1.6 *
;* Date/Time created: Fri Nov 14 16:09:05 2014                                *
;******************************************************************************
	.compiler_opts --abi=eabi --arm_vmrs_si_workaround=on --code_state=16 --diag_wrap=off --disable_dual_state --embedded_constants=on --endian=little --float_support=FPv4SPD16 --hll_source=on --object_format=elf --silicon_version=7M4 --symdebug:dwarf --symdebug:dwarf_version=3 --unaligned_access=on 
	.thumb

$C$DW$CU	.dwtag  DW_TAG_compile_unit
	.dwattr $C$DW$CU, DW_AT_name("../main.c")
	.dwattr $C$DW$CU, DW_AT_producer("TI TI ARM C/C++ Codegen PC v5.1.6 Copyright (c) 1996-2014 Texas Instruments Incorporated")
	.dwattr $C$DW$CU, DW_AT_TI_version(0x01)
	.dwattr $C$DW$CU, DW_AT_comp_dir("D:\MEOCloud\MEOCloud\WorkSpace CCS\CCS TM4C123\WS2812B PWM\Debug")

$C$DW$1	.dwtag  DW_TAG_subprogram, DW_AT_name("TimerEnable")
	.dwattr $C$DW$1, DW_AT_TI_symbol_name("TimerEnable")
	.dwattr $C$DW$1, DW_AT_declaration
	.dwattr $C$DW$1, DW_AT_external
	.dwattr $C$DW$1, DW_AT_decl_file("C:/ti/TivaWare_C_Series-2.1.0.12573/driverlib/timer.h")
	.dwattr $C$DW$1, DW_AT_decl_line(0xf3)
	.dwattr $C$DW$1, DW_AT_decl_column(0x0d)
$C$DW$2	.dwtag  DW_TAG_formal_parameter
	.dwattr $C$DW$2, DW_AT_type(*$C$DW$T$24)
$C$DW$3	.dwtag  DW_TAG_formal_parameter
	.dwattr $C$DW$3, DW_AT_type(*$C$DW$T$24)
	.dwendtag $C$DW$1


$C$DW$4	.dwtag  DW_TAG_subprogram, DW_AT_name("TimerDisable")
	.dwattr $C$DW$4, DW_AT_TI_symbol_name("TimerDisable")
	.dwattr $C$DW$4, DW_AT_declaration
	.dwattr $C$DW$4, DW_AT_external
	.dwattr $C$DW$4, DW_AT_decl_file("C:/ti/TivaWare_C_Series-2.1.0.12573/driverlib/timer.h")
	.dwattr $C$DW$4, DW_AT_decl_line(0xf4)
	.dwattr $C$DW$4, DW_AT_decl_column(0x0d)
$C$DW$5	.dwtag  DW_TAG_formal_parameter
	.dwattr $C$DW$5, DW_AT_type(*$C$DW$T$24)
$C$DW$6	.dwtag  DW_TAG_formal_parameter
	.dwattr $C$DW$6, DW_AT_type(*$C$DW$T$24)
	.dwendtag $C$DW$4


$C$DW$7	.dwtag  DW_TAG_subprogram, DW_AT_name("TimerConfigure")
	.dwattr $C$DW$7, DW_AT_TI_symbol_name("TimerConfigure")
	.dwattr $C$DW$7, DW_AT_declaration
	.dwattr $C$DW$7, DW_AT_external
	.dwattr $C$DW$7, DW_AT_decl_file("C:/ti/TivaWare_C_Series-2.1.0.12573/driverlib/timer.h")
	.dwattr $C$DW$7, DW_AT_decl_line(0xf5)
	.dwattr $C$DW$7, DW_AT_decl_column(0x0d)
$C$DW$8	.dwtag  DW_TAG_formal_parameter
	.dwattr $C$DW$8, DW_AT_type(*$C$DW$T$24)
$C$DW$9	.dwtag  DW_TAG_formal_parameter
	.dwattr $C$DW$9, DW_AT_type(*$C$DW$T$24)
	.dwendtag $C$DW$7


$C$DW$10	.dwtag  DW_TAG_subprogram, DW_AT_name("TimerControlEvent")
	.dwattr $C$DW$10, DW_AT_TI_symbol_name("TimerControlEvent")
	.dwattr $C$DW$10, DW_AT_declaration
	.dwattr $C$DW$10, DW_AT_external
	.dwattr $C$DW$10, DW_AT_decl_file("C:/ti/TivaWare_C_Series-2.1.0.12573/driverlib/timer.h")
	.dwattr $C$DW$10, DW_AT_decl_line(0xfa)
	.dwattr $C$DW$10, DW_AT_decl_column(0x0d)
$C$DW$11	.dwtag  DW_TAG_formal_parameter
	.dwattr $C$DW$11, DW_AT_type(*$C$DW$T$24)
$C$DW$12	.dwtag  DW_TAG_formal_parameter
	.dwattr $C$DW$12, DW_AT_type(*$C$DW$T$24)
$C$DW$13	.dwtag  DW_TAG_formal_parameter
	.dwattr $C$DW$13, DW_AT_type(*$C$DW$T$24)
	.dwendtag $C$DW$10


$C$DW$14	.dwtag  DW_TAG_subprogram, DW_AT_name("TimerLoadSet")
	.dwattr $C$DW$14, DW_AT_TI_symbol_name("TimerLoadSet")
	.dwattr $C$DW$14, DW_AT_declaration
	.dwattr $C$DW$14, DW_AT_external
	.dwattr $C$DW$14, DW_AT_decl_file("C:/ti/TivaWare_C_Series-2.1.0.12573/driverlib/timer.h")
	.dwattr $C$DW$14, DW_AT_decl_line(0x108)
	.dwattr $C$DW$14, DW_AT_decl_column(0x0d)
$C$DW$15	.dwtag  DW_TAG_formal_parameter
	.dwattr $C$DW$15, DW_AT_type(*$C$DW$T$24)
$C$DW$16	.dwtag  DW_TAG_formal_parameter
	.dwattr $C$DW$16, DW_AT_type(*$C$DW$T$24)
$C$DW$17	.dwtag  DW_TAG_formal_parameter
	.dwattr $C$DW$17, DW_AT_type(*$C$DW$T$24)
	.dwendtag $C$DW$14


$C$DW$18	.dwtag  DW_TAG_subprogram, DW_AT_name("TimerMatchSet")
	.dwattr $C$DW$18, DW_AT_TI_symbol_name("TimerMatchSet")
	.dwattr $C$DW$18, DW_AT_declaration
	.dwattr $C$DW$18, DW_AT_external
	.dwattr $C$DW$18, DW_AT_decl_file("C:/ti/TivaWare_C_Series-2.1.0.12573/driverlib/timer.h")
	.dwattr $C$DW$18, DW_AT_decl_line(0x10f)
	.dwattr $C$DW$18, DW_AT_decl_column(0x0d)
$C$DW$19	.dwtag  DW_TAG_formal_parameter
	.dwattr $C$DW$19, DW_AT_type(*$C$DW$T$24)
$C$DW$20	.dwtag  DW_TAG_formal_parameter
	.dwattr $C$DW$20, DW_AT_type(*$C$DW$T$24)
$C$DW$21	.dwtag  DW_TAG_formal_parameter
	.dwattr $C$DW$21, DW_AT_type(*$C$DW$T$24)
	.dwendtag $C$DW$18


$C$DW$22	.dwtag  DW_TAG_subprogram, DW_AT_name("TimerIntRegister")
	.dwattr $C$DW$22, DW_AT_TI_symbol_name("TimerIntRegister")
	.dwattr $C$DW$22, DW_AT_declaration
	.dwattr $C$DW$22, DW_AT_external
	.dwattr $C$DW$22, DW_AT_decl_file("C:/ti/TivaWare_C_Series-2.1.0.12573/driverlib/timer.h")
	.dwattr $C$DW$22, DW_AT_decl_line(0x114)
	.dwattr $C$DW$22, DW_AT_decl_column(0x0d)
$C$DW$23	.dwtag  DW_TAG_formal_parameter
	.dwattr $C$DW$23, DW_AT_type(*$C$DW$T$24)
$C$DW$24	.dwtag  DW_TAG_formal_parameter
	.dwattr $C$DW$24, DW_AT_type(*$C$DW$T$24)
$C$DW$25	.dwtag  DW_TAG_formal_parameter
	.dwattr $C$DW$25, DW_AT_type(*$C$DW$T$37)
	.dwendtag $C$DW$22


$C$DW$26	.dwtag  DW_TAG_subprogram, DW_AT_name("TimerIntEnable")
	.dwattr $C$DW$26, DW_AT_TI_symbol_name("TimerIntEnable")
	.dwattr $C$DW$26, DW_AT_declaration
	.dwattr $C$DW$26, DW_AT_external
	.dwattr $C$DW$26, DW_AT_decl_file("C:/ti/TivaWare_C_Series-2.1.0.12573/driverlib/timer.h")
	.dwattr $C$DW$26, DW_AT_decl_line(0x117)
	.dwattr $C$DW$26, DW_AT_decl_column(0x0d)
$C$DW$27	.dwtag  DW_TAG_formal_parameter
	.dwattr $C$DW$27, DW_AT_type(*$C$DW$T$24)
$C$DW$28	.dwtag  DW_TAG_formal_parameter
	.dwattr $C$DW$28, DW_AT_type(*$C$DW$T$24)
	.dwendtag $C$DW$26


$C$DW$29	.dwtag  DW_TAG_subprogram, DW_AT_name("GPIOPinWrite")
	.dwattr $C$DW$29, DW_AT_TI_symbol_name("GPIOPinWrite")
	.dwattr $C$DW$29, DW_AT_declaration
	.dwattr $C$DW$29, DW_AT_external
	.dwattr $C$DW$29, DW_AT_decl_file("C:/ti/TivaWare_C_Series-2.1.0.12573/driverlib/gpio.h")
	.dwattr $C$DW$29, DW_AT_decl_line(0x9e)
	.dwattr $C$DW$29, DW_AT_decl_column(0x0d)
$C$DW$30	.dwtag  DW_TAG_formal_parameter
	.dwattr $C$DW$30, DW_AT_type(*$C$DW$T$24)
$C$DW$31	.dwtag  DW_TAG_formal_parameter
	.dwattr $C$DW$31, DW_AT_type(*$C$DW$T$41)
$C$DW$32	.dwtag  DW_TAG_formal_parameter
	.dwattr $C$DW$32, DW_AT_type(*$C$DW$T$41)
	.dwendtag $C$DW$29


$C$DW$33	.dwtag  DW_TAG_subprogram, DW_AT_name("GPIOPinConfigure")
	.dwattr $C$DW$33, DW_AT_TI_symbol_name("GPIOPinConfigure")
	.dwattr $C$DW$33, DW_AT_declaration
	.dwattr $C$DW$33, DW_AT_external
	.dwattr $C$DW$33, DW_AT_decl_file("C:/ti/TivaWare_C_Series-2.1.0.12573/driverlib/gpio.h")
	.dwattr $C$DW$33, DW_AT_decl_line(0x9f)
	.dwattr $C$DW$33, DW_AT_decl_column(0x0d)
$C$DW$34	.dwtag  DW_TAG_formal_parameter
	.dwattr $C$DW$34, DW_AT_type(*$C$DW$T$24)
	.dwendtag $C$DW$33


$C$DW$35	.dwtag  DW_TAG_subprogram, DW_AT_name("GPIOPinTypeGPIOOutput")
	.dwattr $C$DW$35, DW_AT_TI_symbol_name("GPIOPinTypeGPIOOutput")
	.dwattr $C$DW$35, DW_AT_declaration
	.dwattr $C$DW$35, DW_AT_external
	.dwattr $C$DW$35, DW_AT_decl_file("C:/ti/TivaWare_C_Series-2.1.0.12573/driverlib/gpio.h")
	.dwattr $C$DW$35, DW_AT_decl_line(0xa7)
	.dwattr $C$DW$35, DW_AT_decl_column(0x0d)
$C$DW$36	.dwtag  DW_TAG_formal_parameter
	.dwattr $C$DW$36, DW_AT_type(*$C$DW$T$24)
$C$DW$37	.dwtag  DW_TAG_formal_parameter
	.dwattr $C$DW$37, DW_AT_type(*$C$DW$T$41)
	.dwendtag $C$DW$35


$C$DW$38	.dwtag  DW_TAG_subprogram, DW_AT_name("GPIOPinTypeTimer")
	.dwattr $C$DW$38, DW_AT_TI_symbol_name("GPIOPinTypeTimer")
	.dwattr $C$DW$38, DW_AT_declaration
	.dwattr $C$DW$38, DW_AT_external
	.dwattr $C$DW$38, DW_AT_decl_file("C:/ti/TivaWare_C_Series-2.1.0.12573/driverlib/gpio.h")
	.dwattr $C$DW$38, DW_AT_decl_line(0xaf)
	.dwattr $C$DW$38, DW_AT_decl_column(0x0d)
$C$DW$39	.dwtag  DW_TAG_formal_parameter
	.dwattr $C$DW$39, DW_AT_type(*$C$DW$T$24)
$C$DW$40	.dwtag  DW_TAG_formal_parameter
	.dwattr $C$DW$40, DW_AT_type(*$C$DW$T$41)
	.dwendtag $C$DW$38


$C$DW$41	.dwtag  DW_TAG_subprogram, DW_AT_name("IntEnable")
	.dwattr $C$DW$41, DW_AT_TI_symbol_name("IntEnable")
	.dwattr $C$DW$41, DW_AT_declaration
	.dwattr $C$DW$41, DW_AT_external
	.dwattr $C$DW$41, DW_AT_decl_file("C:/ti/TivaWare_C_Series-2.1.0.12573/driverlib/interrupt.h")
	.dwattr $C$DW$41, DW_AT_decl_line(0x4c)
	.dwattr $C$DW$41, DW_AT_decl_column(0x0d)
$C$DW$42	.dwtag  DW_TAG_formal_parameter
	.dwattr $C$DW$42, DW_AT_type(*$C$DW$T$24)
	.dwendtag $C$DW$41


$C$DW$43	.dwtag  DW_TAG_subprogram, DW_AT_name("SysCtlPeripheralEnable")
	.dwattr $C$DW$43, DW_AT_TI_symbol_name("SysCtlPeripheralEnable")
	.dwattr $C$DW$43, DW_AT_declaration
	.dwattr $C$DW$43, DW_AT_external
	.dwattr $C$DW$43, DW_AT_decl_file("C:/ti/TivaWare_C_Series-2.1.0.12573/driverlib/sysctl.h")
	.dwattr $C$DW$43, DW_AT_decl_line(0x24e)
	.dwattr $C$DW$43, DW_AT_decl_column(0x0d)
$C$DW$44	.dwtag  DW_TAG_formal_parameter
	.dwattr $C$DW$44, DW_AT_type(*$C$DW$T$24)
	.dwendtag $C$DW$43


$C$DW$45	.dwtag  DW_TAG_subprogram, DW_AT_name("SysCtlDelay")
	.dwattr $C$DW$45, DW_AT_TI_symbol_name("SysCtlDelay")
	.dwattr $C$DW$45, DW_AT_declaration
	.dwattr $C$DW$45, DW_AT_external
	.dwattr $C$DW$45, DW_AT_decl_file("C:/ti/TivaWare_C_Series-2.1.0.12573/driverlib/sysctl.h")
	.dwattr $C$DW$45, DW_AT_decl_line(0x268)
	.dwattr $C$DW$45, DW_AT_decl_column(0x0d)
$C$DW$46	.dwtag  DW_TAG_formal_parameter
	.dwattr $C$DW$46, DW_AT_type(*$C$DW$T$24)
	.dwendtag $C$DW$45


$C$DW$47	.dwtag  DW_TAG_subprogram, DW_AT_name("SysCtlClockSet")
	.dwattr $C$DW$47, DW_AT_TI_symbol_name("SysCtlClockSet")
	.dwattr $C$DW$47, DW_AT_declaration
	.dwattr $C$DW$47, DW_AT_external
	.dwattr $C$DW$47, DW_AT_decl_file("C:/ti/TivaWare_C_Series-2.1.0.12573/driverlib/sysctl.h")
	.dwattr $C$DW$47, DW_AT_decl_line(0x26b)
	.dwattr $C$DW$47, DW_AT_decl_column(0x0d)
$C$DW$48	.dwtag  DW_TAG_formal_parameter
	.dwattr $C$DW$48, DW_AT_type(*$C$DW$T$24)
	.dwendtag $C$DW$47


$C$DW$49	.dwtag  DW_TAG_subprogram, DW_AT_name("SysTickEnable")
	.dwattr $C$DW$49, DW_AT_TI_symbol_name("SysTickEnable")
	.dwattr $C$DW$49, DW_AT_declaration
	.dwattr $C$DW$49, DW_AT_external
	.dwattr $C$DW$49, DW_AT_decl_file("C:/ti/TivaWare_C_Series-2.1.0.12573/driverlib/systick.h")
	.dwattr $C$DW$49, DW_AT_decl_line(0x3b)
	.dwattr $C$DW$49, DW_AT_decl_column(0x0d)

$C$DW$50	.dwtag  DW_TAG_subprogram, DW_AT_name("SysTickIntRegister")
	.dwattr $C$DW$50, DW_AT_TI_symbol_name("SysTickIntRegister")
	.dwattr $C$DW$50, DW_AT_declaration
	.dwattr $C$DW$50, DW_AT_external
	.dwattr $C$DW$50, DW_AT_decl_file("C:/ti/TivaWare_C_Series-2.1.0.12573/driverlib/systick.h")
	.dwattr $C$DW$50, DW_AT_decl_line(0x3d)
	.dwattr $C$DW$50, DW_AT_decl_column(0x0d)
$C$DW$51	.dwtag  DW_TAG_formal_parameter
	.dwattr $C$DW$51, DW_AT_type(*$C$DW$T$37)
	.dwendtag $C$DW$50


$C$DW$52	.dwtag  DW_TAG_subprogram, DW_AT_name("SysTickIntEnable")
	.dwattr $C$DW$52, DW_AT_TI_symbol_name("SysTickIntEnable")
	.dwattr $C$DW$52, DW_AT_declaration
	.dwattr $C$DW$52, DW_AT_external
	.dwattr $C$DW$52, DW_AT_decl_file("C:/ti/TivaWare_C_Series-2.1.0.12573/driverlib/systick.h")
	.dwattr $C$DW$52, DW_AT_decl_line(0x3f)
	.dwattr $C$DW$52, DW_AT_decl_column(0x0d)

$C$DW$53	.dwtag  DW_TAG_subprogram, DW_AT_name("SysTickPeriodSet")
	.dwattr $C$DW$53, DW_AT_TI_symbol_name("SysTickPeriodSet")
	.dwattr $C$DW$53, DW_AT_declaration
	.dwattr $C$DW$53, DW_AT_external
	.dwattr $C$DW$53, DW_AT_decl_file("C:/ti/TivaWare_C_Series-2.1.0.12573/driverlib/systick.h")
	.dwattr $C$DW$53, DW_AT_decl_line(0x41)
	.dwattr $C$DW$53, DW_AT_decl_column(0x0d)
$C$DW$54	.dwtag  DW_TAG_formal_parameter
	.dwattr $C$DW$54, DW_AT_type(*$C$DW$T$24)
	.dwendtag $C$DW$53

	.global	values
values:	.usect	".bss:values",180,1
$C$DW$55	.dwtag  DW_TAG_variable, DW_AT_name("values")
	.dwattr $C$DW$55, DW_AT_TI_symbol_name("values")
	.dwattr $C$DW$55, DW_AT_location[DW_OP_addr values]
	.dwattr $C$DW$55, DW_AT_type(*$C$DW$T$57)
	.dwattr $C$DW$55, DW_AT_external
	.dwattr $C$DW$55, DW_AT_decl_file("../main.c")
	.dwattr $C$DW$55, DW_AT_decl_line(0x31)
	.dwattr $C$DW$55, DW_AT_decl_column(0x09)
	.global	LEDCounter
	.data
	.align	4
	.elfsym	LEDCounter,SYM_SIZE(4)
LEDCounter:
	.bits	-1,32			; LEDCounter @ 0

$C$DW$56	.dwtag  DW_TAG_variable, DW_AT_name("LEDCounter")
	.dwattr $C$DW$56, DW_AT_TI_symbol_name("LEDCounter")
	.dwattr $C$DW$56, DW_AT_location[DW_OP_addr LEDCounter]
	.dwattr $C$DW$56, DW_AT_type(*$C$DW$T$25)
	.dwattr $C$DW$56, DW_AT_external
	.dwattr $C$DW$56, DW_AT_decl_file("../main.c")
	.dwattr $C$DW$56, DW_AT_decl_line(0x37)
	.dwattr $C$DW$56, DW_AT_decl_column(0x13)
	.global	millis
	.data
	.align	4
	.elfsym	millis,SYM_SIZE(4)
millis:
	.bits	0,32			; millis @ 0

$C$DW$57	.dwtag  DW_TAG_variable, DW_AT_name("millis")
	.dwattr $C$DW$57, DW_AT_TI_symbol_name("millis")
	.dwattr $C$DW$57, DW_AT_location[DW_OP_addr millis]
	.dwattr $C$DW$57, DW_AT_type(*$C$DW$T$25)
	.dwattr $C$DW$57, DW_AT_external
	.dwattr $C$DW$57, DW_AT_decl_file("../main.c")
	.dwattr $C$DW$57, DW_AT_decl_line(0x3e)
	.dwattr $C$DW$57, DW_AT_decl_column(0x13)
	.global	brilho
	.data
	.align	4
	.elfsym	brilho,SYM_SIZE(4)
brilho:
	.bits	255,32			; brilho @ 0

$C$DW$58	.dwtag  DW_TAG_variable, DW_AT_name("brilho")
	.dwattr $C$DW$58, DW_AT_TI_symbol_name("brilho")
	.dwattr $C$DW$58, DW_AT_location[DW_OP_addr brilho]
	.dwattr $C$DW$58, DW_AT_type(*$C$DW$T$24)
	.dwattr $C$DW$58, DW_AT_external
	.dwattr $C$DW$58, DW_AT_decl_file("../main.c")
	.dwattr $C$DW$58, DW_AT_decl_line(0xb8)
	.dwattr $C$DW$58, DW_AT_decl_column(0x0a)
	.global	time
	.data
	.align	4
	.elfsym	time,SYM_SIZE(4)
time:
	.bits	1000,32			; time @ 0

$C$DW$59	.dwtag  DW_TAG_variable, DW_AT_name("time")
	.dwattr $C$DW$59, DW_AT_TI_symbol_name("time")
	.dwattr $C$DW$59, DW_AT_location[DW_OP_addr time]
	.dwattr $C$DW$59, DW_AT_type(*$C$DW$T$24)
	.dwattr $C$DW$59, DW_AT_external
	.dwattr $C$DW$59, DW_AT_decl_file("../main.c")
	.dwattr $C$DW$59, DW_AT_decl_line(0xb9)
	.dwattr $C$DW$59, DW_AT_decl_column(0x0a)
;	c:\ti\ccsv6\tools\compiler\arm_5.1.6\bin\armacpia.exe -@C:\\Users\\Asus\\AppData\\Local\\Temp\\0349612 
	.sect	".text"
	.clink
	.thumbfunc SycTickInt
	.thumb
	.global	SycTickInt

$C$DW$60	.dwtag  DW_TAG_subprogram, DW_AT_name("SycTickInt")
	.dwattr $C$DW$60, DW_AT_low_pc(SycTickInt)
	.dwattr $C$DW$60, DW_AT_high_pc(0x00)
	.dwattr $C$DW$60, DW_AT_TI_symbol_name("SycTickInt")
	.dwattr $C$DW$60, DW_AT_external
	.dwattr $C$DW$60, DW_AT_TI_begin_file("../main.c")
	.dwattr $C$DW$60, DW_AT_TI_begin_line(0x40)
	.dwattr $C$DW$60, DW_AT_TI_begin_column(0x06)
	.dwattr $C$DW$60, DW_AT_decl_file("../main.c")
	.dwattr $C$DW$60, DW_AT_decl_line(0x40)
	.dwattr $C$DW$60, DW_AT_decl_column(0x06)
	.dwattr $C$DW$60, DW_AT_TI_max_frame_size(0x00)
	.dwpsn	file "../main.c",line 64,column 18,is_stmt,address SycTickInt,isa 1

	.dwfde $C$DW$CIE, SycTickInt

;*****************************************************************************
;* FUNCTION NAME: SycTickInt                                                 *
;*                                                                           *
;*   Regs Modified     : A1,A2,SR                                            *
;*   Regs Used         : A1,A2,LR,SR                                         *
;*   Local Frame Size  : 0 Args + 0 Auto + 0 Save = 0 byte                   *
;*****************************************************************************
SycTickInt:
;* --------------------------------------------------------------------------*
	.dwcfi	cfa_offset, 0
	.dwpsn	file "../main.c",line 65,column 3,is_stmt,isa 1
        LDR       A2, $C$CON1           ; [DPU_3_PIPE] |65| 
        LDR       A1, [A2, #0]          ; [DPU_3_PIPE] |65| 
        ADDS      A1, A1, #1            ; [DPU_3_PIPE] |65| 
        STR       A1, [A2, #0]          ; [DPU_3_PIPE] |65| 
	.dwpsn	file "../main.c",line 66,column 1,is_stmt,isa 1
$C$DW$61	.dwtag  DW_TAG_TI_branch
	.dwattr $C$DW$61, DW_AT_low_pc(0x00)
	.dwattr $C$DW$61, DW_AT_TI_return
        BX        LR                    ; [DPU_3_PIPE] 
        ; BRANCH OCCURS                  ; [] 
	.dwattr $C$DW$60, DW_AT_TI_end_file("../main.c")
	.dwattr $C$DW$60, DW_AT_TI_end_line(0x42)
	.dwattr $C$DW$60, DW_AT_TI_end_column(0x01)
	.dwendentry
	.dwendtag $C$DW$60

	.sect	".text"
	.clink
	.thumbfunc SysTickbegin
	.thumb
	.global	SysTickbegin

$C$DW$62	.dwtag  DW_TAG_subprogram, DW_AT_name("SysTickbegin")
	.dwattr $C$DW$62, DW_AT_low_pc(SysTickbegin)
	.dwattr $C$DW$62, DW_AT_high_pc(0x00)
	.dwattr $C$DW$62, DW_AT_TI_symbol_name("SysTickbegin")
	.dwattr $C$DW$62, DW_AT_external
	.dwattr $C$DW$62, DW_AT_TI_begin_file("../main.c")
	.dwattr $C$DW$62, DW_AT_TI_begin_line(0x43)
	.dwattr $C$DW$62, DW_AT_TI_begin_column(0x06)
	.dwattr $C$DW$62, DW_AT_decl_file("../main.c")
	.dwattr $C$DW$62, DW_AT_decl_line(0x43)
	.dwattr $C$DW$62, DW_AT_decl_column(0x06)
	.dwattr $C$DW$62, DW_AT_TI_max_frame_size(0x08)
	.dwpsn	file "../main.c",line 67,column 20,is_stmt,address SysTickbegin,isa 1

	.dwfde $C$DW$CIE, SysTickbegin

;*****************************************************************************
;* FUNCTION NAME: SysTickbegin                                               *
;*                                                                           *
;*   Regs Modified     : A1,A2,A3,A4,V9,SP,LR,SR,D0,D0_hi,D1,D1_hi,D2,D2_hi, *
;*                           D3,D3_hi,D4,D4_hi,D5,D5_hi,D6,D6_hi,D7,D7_hi,   *
;*                           FPEXC,FPSCR                                     *
;*   Regs Used         : A1,A2,A3,A4,V9,SP,LR,SR,D0,D0_hi,D1,D1_hi,D2,D2_hi, *
;*                           D3,D3_hi,D4,D4_hi,D5,D5_hi,D6,D6_hi,D7,D7_hi,   *
;*                           FPEXC,FPSCR                                     *
;*   Local Frame Size  : 0 Args + 0 Auto + 4 Save = 4 byte                   *
;*****************************************************************************
SysTickbegin:
;* --------------------------------------------------------------------------*
	.dwcfi	cfa_offset, 0
        PUSH      {A4, LR}              ; [DPU_3_PIPE] 
	.dwcfi	cfa_offset, 8
	.dwcfi	save_reg_to_mem, 14, -4
	.dwcfi	save_reg_to_mem, 3, -8
	.dwpsn	file "../main.c",line 68,column 3,is_stmt,isa 1
        LDR       A1, $C$CON2           ; [DPU_3_PIPE] |68| 
$C$DW$63	.dwtag  DW_TAG_TI_branch
	.dwattr $C$DW$63, DW_AT_low_pc(0x00)
	.dwattr $C$DW$63, DW_AT_name("SysTickPeriodSet")
	.dwattr $C$DW$63, DW_AT_TI_call
        BL        SysTickPeriodSet      ; [DPU_3_PIPE] |68| 
        ; CALL OCCURS {SysTickPeriodSet }  ; [] |68| 
	.dwpsn	file "../main.c",line 69,column 3,is_stmt,isa 1
        LDR       A1, $C$CON3           ; [DPU_3_PIPE] |69| 
$C$DW$64	.dwtag  DW_TAG_TI_branch
	.dwattr $C$DW$64, DW_AT_low_pc(0x00)
	.dwattr $C$DW$64, DW_AT_name("SysTickIntRegister")
	.dwattr $C$DW$64, DW_AT_TI_call
        BL        SysTickIntRegister    ; [DPU_3_PIPE] |69| 
        ; CALL OCCURS {SysTickIntRegister }  ; [] |69| 
	.dwpsn	file "../main.c",line 70,column 3,is_stmt,isa 1
$C$DW$65	.dwtag  DW_TAG_TI_branch
	.dwattr $C$DW$65, DW_AT_low_pc(0x00)
	.dwattr $C$DW$65, DW_AT_name("SysTickIntEnable")
	.dwattr $C$DW$65, DW_AT_TI_call
        BL        SysTickIntEnable      ; [DPU_3_PIPE] |70| 
        ; CALL OCCURS {SysTickIntEnable }  ; [] |70| 
	.dwpsn	file "../main.c",line 71,column 3,is_stmt,isa 1
$C$DW$66	.dwtag  DW_TAG_TI_branch
	.dwattr $C$DW$66, DW_AT_low_pc(0x00)
	.dwattr $C$DW$66, DW_AT_name("SysTickEnable")
	.dwattr $C$DW$66, DW_AT_TI_call
        BL        SysTickEnable         ; [DPU_3_PIPE] |71| 
        ; CALL OCCURS {SysTickEnable }   ; [] |71| 
	.dwpsn	file "../main.c",line 72,column 1,is_stmt,isa 1
$C$DW$67	.dwtag  DW_TAG_TI_branch
	.dwattr $C$DW$67, DW_AT_low_pc(0x00)
	.dwattr $C$DW$67, DW_AT_TI_return
        POP       {A4, PC}              ; [DPU_3_PIPE] 
	.dwcfi	cfa_offset, 0
        ; BRANCH OCCURS                  ; [] 
	.dwattr $C$DW$62, DW_AT_TI_end_file("../main.c")
	.dwattr $C$DW$62, DW_AT_TI_end_line(0x48)
	.dwattr $C$DW$62, DW_AT_TI_end_column(0x01)
	.dwendentry
	.dwendtag $C$DW$62

	.sect	".text"
	.clink
	.thumbfunc Wait
	.thumb
	.global	Wait

$C$DW$68	.dwtag  DW_TAG_subprogram, DW_AT_name("Wait")
	.dwattr $C$DW$68, DW_AT_low_pc(Wait)
	.dwattr $C$DW$68, DW_AT_high_pc(0x00)
	.dwattr $C$DW$68, DW_AT_TI_symbol_name("Wait")
	.dwattr $C$DW$68, DW_AT_external
	.dwattr $C$DW$68, DW_AT_TI_begin_file("../main.c")
	.dwattr $C$DW$68, DW_AT_TI_begin_line(0x4a)
	.dwattr $C$DW$68, DW_AT_TI_begin_column(0x06)
	.dwattr $C$DW$68, DW_AT_decl_file("../main.c")
	.dwattr $C$DW$68, DW_AT_decl_line(0x4a)
	.dwattr $C$DW$68, DW_AT_decl_column(0x06)
	.dwattr $C$DW$68, DW_AT_TI_max_frame_size(0x08)
	.dwpsn	file "../main.c",line 74,column 25,is_stmt,address Wait,isa 1

	.dwfde $C$DW$CIE, Wait
$C$DW$69	.dwtag  DW_TAG_formal_parameter, DW_AT_name("time")
	.dwattr $C$DW$69, DW_AT_TI_symbol_name("time")
	.dwattr $C$DW$69, DW_AT_type(*$C$DW$T$24)
	.dwattr $C$DW$69, DW_AT_location[DW_OP_reg0]

;*****************************************************************************
;* FUNCTION NAME: Wait                                                       *
;*                                                                           *
;*   Regs Modified     : A1,A2,A3,SP,SR                                      *
;*   Regs Used         : A1,A2,A3,SP,LR,SR                                   *
;*   Local Frame Size  : 0 Args + 8 Auto + 0 Save = 8 byte                   *
;*****************************************************************************
Wait:
;* --------------------------------------------------------------------------*
	.dwcfi	cfa_offset, 0
        SUB       SP, SP, #8            ; [DPU_3_PIPE] 
	.dwcfi	cfa_offset, 8
$C$DW$70	.dwtag  DW_TAG_variable, DW_AT_name("time")
	.dwattr $C$DW$70, DW_AT_TI_symbol_name("time")
	.dwattr $C$DW$70, DW_AT_type(*$C$DW$T$24)
	.dwattr $C$DW$70, DW_AT_location[DW_OP_breg13 0]
$C$DW$71	.dwtag  DW_TAG_variable, DW_AT_name("temp")
	.dwattr $C$DW$71, DW_AT_TI_symbol_name("temp")
	.dwattr $C$DW$71, DW_AT_type(*$C$DW$T$24)
	.dwattr $C$DW$71, DW_AT_location[DW_OP_breg13 4]
        STR       A1, [SP, #0]          ; [DPU_3_PIPE] |74| 
	.dwpsn	file "../main.c",line 75,column 16,is_stmt,isa 1
        LDR       A1, $C$CON1           ; [DPU_3_PIPE] |75| 
        LDR       A1, [A1, #0]          ; [DPU_3_PIPE] |75| 
        STR       A1, [SP, #4]          ; [DPU_3_PIPE] |75| 
	.dwpsn	file "../main.c",line 76,column 2,is_stmt,isa 1
;* --------------------------------------------------------------------------*
;*   BEGIN LOOP ||$C$L1||
;*
;*   Loop source line                : 76
;*   Loop closing brace source line  : 77
;*   Known Minimum Trip Count        : 1
;*   Known Maximum Trip Count        : 4294967295
;*   Known Max Trip Count Factor     : 1
;* --------------------------------------------------------------------------*
||$C$L1||:    
	.dwpsn	file "../main.c",line 76,column 9,is_stmt,isa 1
        LDR       A1, $C$CON1           ; [DPU_3_PIPE] |76| 
        LDR       A3, [SP, #4]          ; [DPU_3_PIPE] |76| 
        LDR       A2, [SP, #0]          ; [DPU_3_PIPE] |76| 
        LDR       A1, [A1, #0]          ; [DPU_3_PIPE] |76| 
        SUBS      A1, A1, A3            ; [DPU_3_PIPE] |76| 
        CMP       A2, A1                ; [DPU_3_PIPE] |76| 
        BHI       ||$C$L1||             ; [DPU_3_PIPE] |76| 
        ; BRANCHCC OCCURS {||$C$L1||}    ; [] |76| 
;* --------------------------------------------------------------------------*
	.dwpsn	file "../main.c",line 78,column 1,is_stmt,isa 1
        ADD       SP, SP, #8            ; [DPU_3_PIPE] 
	.dwcfi	cfa_offset, 0
$C$DW$72	.dwtag  DW_TAG_TI_branch
	.dwattr $C$DW$72, DW_AT_low_pc(0x00)
	.dwattr $C$DW$72, DW_AT_TI_return
        BX        LR                    ; [DPU_3_PIPE] 
        ; BRANCH OCCURS                  ; [] 
	.dwattr $C$DW$68, DW_AT_TI_end_file("../main.c")
	.dwattr $C$DW$68, DW_AT_TI_end_line(0x4e)
	.dwattr $C$DW$68, DW_AT_TI_end_column(0x01)
	.dwendentry
	.dwendtag $C$DW$68

	.sect	".text"
	.clink
	.thumbfunc TimerInt
	.thumb
	.global	TimerInt

$C$DW$73	.dwtag  DW_TAG_subprogram, DW_AT_name("TimerInt")
	.dwattr $C$DW$73, DW_AT_low_pc(TimerInt)
	.dwattr $C$DW$73, DW_AT_high_pc(0x00)
	.dwattr $C$DW$73, DW_AT_TI_symbol_name("TimerInt")
	.dwattr $C$DW$73, DW_AT_external
	.dwattr $C$DW$73, DW_AT_TI_begin_file("../main.c")
	.dwattr $C$DW$73, DW_AT_TI_begin_line(0x5d)
	.dwattr $C$DW$73, DW_AT_TI_begin_column(0x06)
	.dwattr $C$DW$73, DW_AT_decl_file("../main.c")
	.dwattr $C$DW$73, DW_AT_decl_line(0x5d)
	.dwattr $C$DW$73, DW_AT_decl_column(0x06)
	.dwattr $C$DW$73, DW_AT_TI_max_frame_size(0x08)
	.dwpsn	file "../main.c",line 93,column 16,is_stmt,address TimerInt,isa 1

	.dwfde $C$DW$CIE, TimerInt

;*****************************************************************************
;* FUNCTION NAME: TimerInt                                                   *
;*                                                                           *
;*   Regs Modified     : A1,A2,A3,A4,V9,SP,LR,SR,D0,D0_hi,D1,D1_hi,D2,D2_hi, *
;*                           D3,D3_hi,D4,D4_hi,D5,D5_hi,D6,D6_hi,D7,D7_hi,   *
;*                           FPEXC,FPSCR                                     *
;*   Regs Used         : A1,A2,A3,A4,V9,SP,LR,SR,D0,D0_hi,D1,D1_hi,D2,D2_hi, *
;*                           D3,D3_hi,D4,D4_hi,D5,D5_hi,D6,D6_hi,D7,D7_hi,   *
;*                           FPEXC,FPSCR                                     *
;*   Local Frame Size  : 0 Args + 0 Auto + 4 Save = 4 byte                   *
;*****************************************************************************
TimerInt:
;* --------------------------------------------------------------------------*
	.dwcfi	cfa_offset, 0
        PUSH      {A4, LR}              ; [DPU_3_PIPE] 
	.dwcfi	cfa_offset, 8
	.dwcfi	save_reg_to_mem, 14, -4
	.dwcfi	save_reg_to_mem, 3, -8
	.dwpsn	file "../main.c",line 95,column 2,is_stmt,isa 1
        LDR       A1, $C$CON5           ; [DPU_3_PIPE] |95| 
        LDR       A2, $C$CON4           ; [DPU_3_PIPE] |95| 
        LDR       A1, [A1, #0]          ; [DPU_3_PIPE] |95| 
        STR       A1, [A2, #0]          ; [DPU_3_PIPE] |95| 
	.dwpsn	file "../main.c",line 97,column 2,is_stmt,isa 1
        LDR       A2, $C$CON6           ; [DPU_3_PIPE] |97| 
        LDR       A1, [A2, #0]          ; [DPU_3_PIPE] |97| 
        ADDS      A1, A1, #1            ; [DPU_3_PIPE] |97| 
        STR       A1, [A2, #0]          ; [DPU_3_PIPE] |97| 
	.dwpsn	file "../main.c",line 104,column 2,is_stmt,isa 1
        LDR       A1, $C$CON6           ; [DPU_3_PIPE] |104| 
        LDR       A1, [A1, #0]          ; [DPU_3_PIPE] |104| 
        CMP       A1, #1440             ; [DPU_3_PIPE] |104| 
        BCC       ||$C$L2||             ; [DPU_3_PIPE] |104| 
        ; BRANCHCC OCCURS {||$C$L2||}    ; [] |104| 
;* --------------------------------------------------------------------------*
	.dwpsn	file "../main.c",line 105,column 3,is_stmt,isa 1
        LDR       A1, $C$CON7           ; [DPU_3_PIPE] |105| 
        MOV       A2, #65280            ; [DPU_3_PIPE] |105| 
$C$DW$74	.dwtag  DW_TAG_TI_branch
	.dwattr $C$DW$74, DW_AT_low_pc(0x00)
	.dwattr $C$DW$74, DW_AT_name("TimerDisable")
	.dwattr $C$DW$74, DW_AT_TI_call
        BL        TimerDisable          ; [DPU_3_PIPE] |105| 
        ; CALL OCCURS {TimerDisable }    ; [] |105| 
	.dwpsn	file "../main.c",line 106,column 3,is_stmt,isa 1
        LDR       A1, $C$CON8           ; [DPU_3_PIPE] |106| 
        MOVS      A2, #2                ; [DPU_3_PIPE] |106| 
$C$DW$75	.dwtag  DW_TAG_TI_branch
	.dwattr $C$DW$75, DW_AT_low_pc(0x00)
	.dwattr $C$DW$75, DW_AT_name("GPIOPinTypeGPIOOutput")
	.dwattr $C$DW$75, DW_AT_TI_call
        BL        GPIOPinTypeGPIOOutput ; [DPU_3_PIPE] |106| 
        ; CALL OCCURS {GPIOPinTypeGPIOOutput }  ; [] |106| 
	.dwpsn	file "../main.c",line 107,column 3,is_stmt,isa 1
        LDR       A1, $C$CON8           ; [DPU_3_PIPE] |107| 
        MOVS      A2, #2                ; [DPU_3_PIPE] |107| 
        MOVS      A3, #0                ; [DPU_3_PIPE] |107| 
$C$DW$76	.dwtag  DW_TAG_TI_branch
	.dwattr $C$DW$76, DW_AT_low_pc(0x00)
	.dwattr $C$DW$76, DW_AT_name("GPIOPinWrite")
	.dwattr $C$DW$76, DW_AT_TI_call
        BL        GPIOPinWrite          ; [DPU_3_PIPE] |107| 
        ; CALL OCCURS {GPIOPinWrite }    ; [] |107| 
	.dwpsn	file "../main.c",line 108,column 3,is_stmt,isa 1
        LDR       A2, $C$CON6           ; [DPU_3_PIPE] |108| 
        MOV       A1, #-1               ; [DPU_3_PIPE] |108| 
        STR       A1, [A2, #0]          ; [DPU_3_PIPE] |108| 
	.dwpsn	file "../main.c",line 109,column 2,is_stmt,isa 1
        B         ||$C$L4||             ; [DPU_3_PIPE] |109| 
        ; BRANCH OCCURS {||$C$L4||}      ; [] |109| 
;* --------------------------------------------------------------------------*
||$C$L2||:    
	.dwpsn	file "../main.c",line 122,column 3,is_stmt,isa 1
        LDR       A2, $C$CON6           ; [DPU_3_PIPE] |122| 
        LDR       A1, $C$CON6           ; [DPU_3_PIPE] |122| 
        LDR       A3, $C$CON9           ; [DPU_3_PIPE] |122| 
        LDR       A2, [A2, #0]          ; [DPU_3_PIPE] |122| 
        LDR       A1, [A1, #0]          ; [DPU_3_PIPE] |122| 
        LSRS      A2, A2, #3            ; [DPU_3_PIPE] |122| 
        LDRB      A2, [A3, +A2]         ; [DPU_3_PIPE] |122| 
        AND       A1, A1, #7            ; [DPU_3_PIPE] |122| 
        RSB       A1, A1, #7            ; [DPU_3_PIPE] |122| 
        ASRS      A2, A2, A1            ; [DPU_3_PIPE] |122| 
        LSRS      A1, A2, #1            ; [DPU_3_PIPE] |122| 
        BCC       ||$C$L3||             ; [DPU_3_PIPE] |122| 
        ; BRANCHCC OCCURS {||$C$L3||}    ; [] |122| 
;* --------------------------------------------------------------------------*
	.dwpsn	file "../main.c",line 123,column 5,is_stmt,isa 1
        LDR       A2, $C$CON10          ; [DPU_3_PIPE] |123| 
        MOVS      A1, #36               ; [DPU_3_PIPE] |123| 
        STR       A1, [A2, #0]          ; [DPU_3_PIPE] |123| 
        B         ||$C$L4||             ; [DPU_3_PIPE] |123| 
        ; BRANCH OCCURS {||$C$L4||}      ; [] |123| 
;* --------------------------------------------------------------------------*
||$C$L3||:    
	.dwpsn	file "../main.c",line 125,column 5,is_stmt,isa 1
        LDR       A2, $C$CON10          ; [DPU_3_PIPE] |125| 
        MOVS      A1, #68               ; [DPU_3_PIPE] |125| 
        STR       A1, [A2, #0]          ; [DPU_3_PIPE] |125| 
	.dwpsn	file "../main.c",line 127,column 1,is_stmt,isa 1
;* --------------------------------------------------------------------------*
||$C$L4||:    
$C$DW$77	.dwtag  DW_TAG_TI_branch
	.dwattr $C$DW$77, DW_AT_low_pc(0x00)
	.dwattr $C$DW$77, DW_AT_TI_return
        POP       {A4, PC}              ; [DPU_3_PIPE] 
	.dwcfi	cfa_offset, 0
        ; BRANCH OCCURS                  ; [] 
	.dwattr $C$DW$73, DW_AT_TI_end_file("../main.c")
	.dwattr $C$DW$73, DW_AT_TI_end_line(0x7f)
	.dwattr $C$DW$73, DW_AT_TI_end_column(0x01)
	.dwendentry
	.dwendtag $C$DW$73

	.sect	".text"
	.clink
	.thumbfunc PWMInit
	.thumb
	.global	PWMInit

$C$DW$78	.dwtag  DW_TAG_subprogram, DW_AT_name("PWMInit")
	.dwattr $C$DW$78, DW_AT_low_pc(PWMInit)
	.dwattr $C$DW$78, DW_AT_high_pc(0x00)
	.dwattr $C$DW$78, DW_AT_TI_symbol_name("PWMInit")
	.dwattr $C$DW$78, DW_AT_external
	.dwattr $C$DW$78, DW_AT_TI_begin_file("../main.c")
	.dwattr $C$DW$78, DW_AT_TI_begin_line(0x8a)
	.dwattr $C$DW$78, DW_AT_TI_begin_column(0x06)
	.dwattr $C$DW$78, DW_AT_decl_file("../main.c")
	.dwattr $C$DW$78, DW_AT_decl_line(0x8a)
	.dwattr $C$DW$78, DW_AT_decl_column(0x06)
	.dwattr $C$DW$78, DW_AT_TI_max_frame_size(0x08)
	.dwpsn	file "../main.c",line 138,column 15,is_stmt,address PWMInit,isa 1

	.dwfde $C$DW$CIE, PWMInit

;*****************************************************************************
;* FUNCTION NAME: PWMInit                                                    *
;*                                                                           *
;*   Regs Modified     : A1,A2,A3,A4,V9,SP,LR,SR,D0,D0_hi,D1,D1_hi,D2,D2_hi, *
;*                           D3,D3_hi,D4,D4_hi,D5,D5_hi,D6,D6_hi,D7,D7_hi,   *
;*                           FPEXC,FPSCR                                     *
;*   Regs Used         : A1,A2,A3,A4,V9,SP,LR,SR,D0,D0_hi,D1,D1_hi,D2,D2_hi, *
;*                           D3,D3_hi,D4,D4_hi,D5,D5_hi,D6,D6_hi,D7,D7_hi,   *
;*                           FPEXC,FPSCR                                     *
;*   Local Frame Size  : 0 Args + 4 Auto + 4 Save = 8 byte                   *
;*****************************************************************************
PWMInit:
;* --------------------------------------------------------------------------*
	.dwcfi	cfa_offset, 0
        PUSH      {A4, LR}              ; [DPU_3_PIPE] 
	.dwcfi	cfa_offset, 8
	.dwcfi	save_reg_to_mem, 14, -4
	.dwcfi	save_reg_to_mem, 3, -8
$C$DW$79	.dwtag  DW_TAG_variable, DW_AT_name("Period")
	.dwattr $C$DW$79, DW_AT_TI_symbol_name("Period")
	.dwattr $C$DW$79, DW_AT_type(*$C$DW$T$24)
	.dwattr $C$DW$79, DW_AT_location[DW_OP_breg13 0]
	.dwpsn	file "../main.c",line 141,column 2,is_stmt,isa 1
        MOVS      A1, #100              ; [DPU_3_PIPE] |141| 
        STR       A1, [SP, #0]          ; [DPU_3_PIPE] |141| 
	.dwpsn	file "../main.c",line 144,column 5,is_stmt,isa 1
        LDR       A1, $C$CON11          ; [DPU_3_PIPE] |144| 
$C$DW$80	.dwtag  DW_TAG_TI_branch
	.dwattr $C$DW$80, DW_AT_low_pc(0x00)
	.dwattr $C$DW$80, DW_AT_name("SysCtlPeripheralEnable")
	.dwattr $C$DW$80, DW_AT_TI_call
        BL        SysCtlPeripheralEnable ; [DPU_3_PIPE] |144| 
        ; CALL OCCURS {SysCtlPeripheralEnable }  ; [] |144| 
	.dwpsn	file "../main.c",line 145,column 2,is_stmt,isa 1
        MOVS      A1, #3                ; [DPU_3_PIPE] |145| 
$C$DW$81	.dwtag  DW_TAG_TI_branch
	.dwattr $C$DW$81, DW_AT_low_pc(0x00)
	.dwattr $C$DW$81, DW_AT_name("SysCtlDelay")
	.dwattr $C$DW$81, DW_AT_TI_call
        BL        SysCtlDelay           ; [DPU_3_PIPE] |145| 
        ; CALL OCCURS {SysCtlDelay }     ; [] |145| 
	.dwpsn	file "../main.c",line 146,column 2,is_stmt,isa 1
        LDR       A1, $C$CON12          ; [DPU_3_PIPE] |146| 
$C$DW$82	.dwtag  DW_TAG_TI_branch
	.dwattr $C$DW$82, DW_AT_low_pc(0x00)
	.dwattr $C$DW$82, DW_AT_name("GPIOPinConfigure")
	.dwattr $C$DW$82, DW_AT_TI_call
        BL        GPIOPinConfigure      ; [DPU_3_PIPE] |146| 
        ; CALL OCCURS {GPIOPinConfigure }  ; [] |146| 
	.dwpsn	file "../main.c",line 147,column 2,is_stmt,isa 1
        LDR       A1, $C$CON8           ; [DPU_3_PIPE] |147| 
        MOVS      A2, #2                ; [DPU_3_PIPE] |147| 
$C$DW$83	.dwtag  DW_TAG_TI_branch
	.dwattr $C$DW$83, DW_AT_low_pc(0x00)
	.dwattr $C$DW$83, DW_AT_name("GPIOPinTypeTimer")
	.dwattr $C$DW$83, DW_AT_TI_call
        BL        GPIOPinTypeTimer      ; [DPU_3_PIPE] |147| 
        ; CALL OCCURS {GPIOPinTypeTimer }  ; [] |147| 
	.dwpsn	file "../main.c",line 149,column 2,is_stmt,isa 1
        LDR       A1, $C$CON13          ; [DPU_3_PIPE] |149| 
$C$DW$84	.dwtag  DW_TAG_TI_branch
	.dwattr $C$DW$84, DW_AT_low_pc(0x00)
	.dwattr $C$DW$84, DW_AT_name("SysCtlPeripheralEnable")
	.dwattr $C$DW$84, DW_AT_TI_call
        BL        SysCtlPeripheralEnable ; [DPU_3_PIPE] |149| 
        ; CALL OCCURS {SysCtlPeripheralEnable }  ; [] |149| 
	.dwpsn	file "../main.c",line 150,column 2,is_stmt,isa 1
        MOVS      A1, #3                ; [DPU_3_PIPE] |150| 
$C$DW$85	.dwtag  DW_TAG_TI_branch
	.dwattr $C$DW$85, DW_AT_low_pc(0x00)
	.dwattr $C$DW$85, DW_AT_name("SysCtlDelay")
	.dwattr $C$DW$85, DW_AT_TI_call
        BL        SysCtlDelay           ; [DPU_3_PIPE] |150| 
        ; CALL OCCURS {SysCtlDelay }     ; [] |150| 
	.dwpsn	file "../main.c",line 151,column 2,is_stmt,isa 1
        LDR       A1, $C$CON7           ; [DPU_3_PIPE] |151| 
        LDR       A2, $C$CON14          ; [DPU_3_PIPE] |151| 
$C$DW$86	.dwtag  DW_TAG_TI_branch
	.dwattr $C$DW$86, DW_AT_low_pc(0x00)
	.dwattr $C$DW$86, DW_AT_name("TimerConfigure")
	.dwattr $C$DW$86, DW_AT_TI_call
        BL        TimerConfigure        ; [DPU_3_PIPE] |151| 
        ; CALL OCCURS {TimerConfigure }  ; [] |151| 
	.dwpsn	file "../main.c",line 152,column 2,is_stmt,isa 1
        LDR       A3, [SP, #0]          ; [DPU_3_PIPE] |152| 
        LDR       A1, $C$CON7           ; [DPU_3_PIPE] |152| 
        MOV       A2, #65280            ; [DPU_3_PIPE] |152| 
        SUBS      A3, A3, #1            ; [DPU_3_PIPE] |152| 
$C$DW$87	.dwtag  DW_TAG_TI_branch
	.dwattr $C$DW$87, DW_AT_low_pc(0x00)
	.dwattr $C$DW$87, DW_AT_name("TimerLoadSet")
	.dwattr $C$DW$87, DW_AT_TI_call
        BL        TimerLoadSet          ; [DPU_3_PIPE] |152| 
        ; CALL OCCURS {TimerLoadSet }    ; [] |152| 
	.dwpsn	file "../main.c",line 155,column 2,is_stmt,isa 1
        LDR       A2, $C$CON15          ; [DPU_3_PIPE] |155| 
        MOVS      A1, #1                ; [DPU_3_PIPE] |155| 
        STR       A1, [A2, #0]          ; [DPU_3_PIPE] |155| 
	.dwpsn	file "../main.c",line 157,column 2,is_stmt,isa 1
        LDR       A1, $C$CON7           ; [DPU_3_PIPE] |157| 
        LDR       A3, $C$CON16          ; [DPU_3_PIPE] |157| 
        MOV       A2, #65280            ; [DPU_3_PIPE] |157| 
$C$DW$88	.dwtag  DW_TAG_TI_branch
	.dwattr $C$DW$88, DW_AT_low_pc(0x00)
	.dwattr $C$DW$88, DW_AT_name("TimerIntRegister")
	.dwattr $C$DW$88, DW_AT_TI_call
        BL        TimerIntRegister      ; [DPU_3_PIPE] |157| 
        ; CALL OCCURS {TimerIntRegister }  ; [] |157| 
	.dwpsn	file "../main.c",line 158,column 2,is_stmt,isa 1
        LDR       A1, $C$CON7           ; [DPU_3_PIPE] |158| 
        MOV       A2, #65280            ; [DPU_3_PIPE] |158| 
        MOVS      A3, #0                ; [DPU_3_PIPE] |158| 
$C$DW$89	.dwtag  DW_TAG_TI_branch
	.dwattr $C$DW$89, DW_AT_low_pc(0x00)
	.dwattr $C$DW$89, DW_AT_name("TimerControlEvent")
	.dwattr $C$DW$89, DW_AT_TI_call
        BL        TimerControlEvent     ; [DPU_3_PIPE] |158| 
        ; CALL OCCURS {TimerControlEvent }  ; [] |158| 
	.dwpsn	file "../main.c",line 159,column 2,is_stmt,isa 1
        LDR       A1, $C$CON7           ; [DPU_3_PIPE] |159| 
        MOV       A2, #1024             ; [DPU_3_PIPE] |159| 
$C$DW$90	.dwtag  DW_TAG_TI_branch
	.dwattr $C$DW$90, DW_AT_low_pc(0x00)
	.dwattr $C$DW$90, DW_AT_name("TimerIntEnable")
	.dwattr $C$DW$90, DW_AT_TI_call
        BL        TimerIntEnable        ; [DPU_3_PIPE] |159| 
        ; CALL OCCURS {TimerIntEnable }  ; [] |159| 
;* --------------------------------------------------------------------------*
	.dwpsn	file "../main.c",line 161,column 2,is_stmt,isa 1
        MOVS      A1, #36               ; [DPU_3_PIPE] |161| 
$C$DW$91	.dwtag  DW_TAG_TI_branch
	.dwattr $C$DW$91, DW_AT_low_pc(0x00)
	.dwattr $C$DW$91, DW_AT_name("IntEnable")
	.dwattr $C$DW$91, DW_AT_TI_call
        BL        IntEnable             ; [DPU_3_PIPE] |161| 
        ; CALL OCCURS {IntEnable }       ; [] |161| 
	.dwpsn	file "../main.c",line 163,column 1,is_stmt,isa 1
$C$DW$92	.dwtag  DW_TAG_TI_branch
	.dwattr $C$DW$92, DW_AT_low_pc(0x00)
	.dwattr $C$DW$92, DW_AT_TI_return
        POP       {A4, PC}              ; [DPU_3_PIPE] 
	.dwcfi	cfa_offset, 0
        ; BRANCH OCCURS                  ; [] 
	.dwattr $C$DW$78, DW_AT_TI_end_file("../main.c")
	.dwattr $C$DW$78, DW_AT_TI_end_line(0xa3)
	.dwattr $C$DW$78, DW_AT_TI_end_column(0x01)
	.dwendentry
	.dwendtag $C$DW$78

	.sect	".text"
	.clink
	.thumbfunc SendData
	.thumb
	.global	SendData

$C$DW$93	.dwtag  DW_TAG_subprogram, DW_AT_name("SendData")
	.dwattr $C$DW$93, DW_AT_low_pc(SendData)
	.dwattr $C$DW$93, DW_AT_high_pc(0x00)
	.dwattr $C$DW$93, DW_AT_TI_symbol_name("SendData")
	.dwattr $C$DW$93, DW_AT_external
	.dwattr $C$DW$93, DW_AT_TI_begin_file("../main.c")
	.dwattr $C$DW$93, DW_AT_TI_begin_line(0xad)
	.dwattr $C$DW$93, DW_AT_TI_begin_column(0x06)
	.dwattr $C$DW$93, DW_AT_decl_file("../main.c")
	.dwattr $C$DW$93, DW_AT_decl_line(0xad)
	.dwattr $C$DW$93, DW_AT_decl_column(0x06)
	.dwattr $C$DW$93, DW_AT_TI_max_frame_size(0x08)
	.dwpsn	file "../main.c",line 173,column 16,is_stmt,address SendData,isa 1

	.dwfde $C$DW$CIE, SendData

;*****************************************************************************
;* FUNCTION NAME: SendData                                                   *
;*                                                                           *
;*   Regs Modified     : A1,A2,A3,A4,V9,SP,LR,SR,D0,D0_hi,D1,D1_hi,D2,D2_hi, *
;*                           D3,D3_hi,D4,D4_hi,D5,D5_hi,D6,D6_hi,D7,D7_hi,   *
;*                           FPEXC,FPSCR                                     *
;*   Regs Used         : A1,A2,A3,A4,V9,SP,LR,SR,D0,D0_hi,D1,D1_hi,D2,D2_hi, *
;*                           D3,D3_hi,D4,D4_hi,D5,D5_hi,D6,D6_hi,D7,D7_hi,   *
;*                           FPEXC,FPSCR                                     *
;*   Local Frame Size  : 0 Args + 0 Auto + 4 Save = 4 byte                   *
;*****************************************************************************
SendData:
;* --------------------------------------------------------------------------*
	.dwcfi	cfa_offset, 0
        PUSH      {A4, LR}              ; [DPU_3_PIPE] 
	.dwcfi	cfa_offset, 8
	.dwcfi	save_reg_to_mem, 14, -4
	.dwcfi	save_reg_to_mem, 3, -8
	.dwpsn	file "../main.c",line 175,column 2,is_stmt,isa 1
        LDR       A1, $C$CON8           ; [DPU_3_PIPE] |175| 
        MOVS      A2, #2                ; [DPU_3_PIPE] |175| 
$C$DW$94	.dwtag  DW_TAG_TI_branch
	.dwattr $C$DW$94, DW_AT_low_pc(0x00)
	.dwattr $C$DW$94, DW_AT_name("GPIOPinTypeTimer")
	.dwattr $C$DW$94, DW_AT_TI_call
        BL        GPIOPinTypeTimer      ; [DPU_3_PIPE] |175| 
        ; CALL OCCURS {GPIOPinTypeTimer }  ; [] |175| 
	.dwpsn	file "../main.c",line 176,column 5,is_stmt,isa 1
        LDR       A1, $C$CON7           ; [DPU_3_PIPE] |176| 
        MOV       A2, #65280            ; [DPU_3_PIPE] |176| 
        MOVS      A3, #98               ; [DPU_3_PIPE] |176| 
$C$DW$95	.dwtag  DW_TAG_TI_branch
	.dwattr $C$DW$95, DW_AT_low_pc(0x00)
	.dwattr $C$DW$95, DW_AT_name("TimerMatchSet")
	.dwattr $C$DW$95, DW_AT_TI_call
        BL        TimerMatchSet         ; [DPU_3_PIPE] |176| 
        ; CALL OCCURS {TimerMatchSet }   ; [] |176| 
	.dwpsn	file "../main.c",line 177,column 5,is_stmt,isa 1
        LDR       A1, $C$CON7           ; [DPU_3_PIPE] |177| 
        MOV       A2, #65280            ; [DPU_3_PIPE] |177| 
$C$DW$96	.dwtag  DW_TAG_TI_branch
	.dwattr $C$DW$96, DW_AT_low_pc(0x00)
	.dwattr $C$DW$96, DW_AT_name("TimerEnable")
	.dwattr $C$DW$96, DW_AT_TI_call
        BL        TimerEnable           ; [DPU_3_PIPE] |177| 
        ; CALL OCCURS {TimerEnable }     ; [] |177| 
	.dwpsn	file "../main.c",line 178,column 5,is_stmt,isa 1
        MOVS      A1, #30               ; [DPU_3_PIPE] |178| 
$C$DW$97	.dwtag  DW_TAG_TI_branch
	.dwattr $C$DW$97, DW_AT_low_pc(0x00)
	.dwattr $C$DW$97, DW_AT_name("SysCtlDelay")
	.dwattr $C$DW$97, DW_AT_TI_call
        BL        SysCtlDelay           ; [DPU_3_PIPE] |178| 
        ; CALL OCCURS {SysCtlDelay }     ; [] |178| 
	.dwpsn	file "../main.c",line 179,column 11,is_stmt,isa 1
        LDR       A1, $C$CON6           ; [DPU_3_PIPE] |179| 
        LDR       A1, [A1, #0]          ; [DPU_3_PIPE] |179| 
        CMP       A1, #-1               ; [DPU_3_PIPE] |179| 
        BEQ       ||$C$L6||             ; [DPU_3_PIPE] |179| 
        ; BRANCHCC OCCURS {||$C$L6||}    ; [] |179| 
;* --------------------------------------------------------------------------*
;*   BEGIN LOOP ||$C$L5||
;*
;*   Loop source line                : 179
;*   Loop closing brace source line  : 179
;*   Known Minimum Trip Count        : 1
;*   Known Maximum Trip Count        : 4294967295
;*   Known Max Trip Count Factor     : 1
;* --------------------------------------------------------------------------*
||$C$L5||:    
        LDR       A1, $C$CON6           ; [DPU_3_PIPE] |179| 
        LDR       A1, [A1, #0]          ; [DPU_3_PIPE] |179| 
        CMP       A1, #-1               ; [DPU_3_PIPE] |179| 
        BNE       ||$C$L5||             ; [DPU_3_PIPE] |179| 
        ; BRANCHCC OCCURS {||$C$L5||}    ; [] |179| 
;* --------------------------------------------------------------------------*
	.dwpsn	file "../main.c",line 181,column 1,is_stmt,isa 1
;* --------------------------------------------------------------------------*
||$C$L6||:    
$C$DW$98	.dwtag  DW_TAG_TI_branch
	.dwattr $C$DW$98, DW_AT_low_pc(0x00)
	.dwattr $C$DW$98, DW_AT_TI_return
        POP       {A4, PC}              ; [DPU_3_PIPE] 
	.dwcfi	cfa_offset, 0
        ; BRANCH OCCURS                  ; [] 
	.dwattr $C$DW$93, DW_AT_TI_end_file("../main.c")
	.dwattr $C$DW$93, DW_AT_TI_end_line(0xb5)
	.dwattr $C$DW$93, DW_AT_TI_end_column(0x01)
	.dwendentry
	.dwendtag $C$DW$93

	.sect	".text"
	.clink
	.thumbfunc main
	.thumb
	.global	main

$C$DW$99	.dwtag  DW_TAG_subprogram, DW_AT_name("main")
	.dwattr $C$DW$99, DW_AT_low_pc(main)
	.dwattr $C$DW$99, DW_AT_high_pc(0x00)
	.dwattr $C$DW$99, DW_AT_TI_symbol_name("main")
	.dwattr $C$DW$99, DW_AT_external
	.dwattr $C$DW$99, DW_AT_type(*$C$DW$T$10)
	.dwattr $C$DW$99, DW_AT_TI_begin_file("../main.c")
	.dwattr $C$DW$99, DW_AT_TI_begin_line(0xbb)
	.dwattr $C$DW$99, DW_AT_TI_begin_column(0x05)
	.dwattr $C$DW$99, DW_AT_decl_file("../main.c")
	.dwattr $C$DW$99, DW_AT_decl_line(0xbb)
	.dwattr $C$DW$99, DW_AT_decl_column(0x05)
	.dwattr $C$DW$99, DW_AT_TI_max_frame_size(0x10)
	.dwpsn	file "../main.c",line 187,column 11,is_stmt,address main,isa 1

	.dwfde $C$DW$CIE, main

;*****************************************************************************
;* FUNCTION NAME: main                                                       *
;*                                                                           *
;*   Regs Modified     : A1,A2,A3,A4,V9,SP,LR,SR,D0,D0_hi,D1,D1_hi,D2,D2_hi, *
;*                           D3,D3_hi,D4,D4_hi,D5,D5_hi,D6,D6_hi,D7,D7_hi,   *
;*                           FPEXC,FPSCR                                     *
;*   Regs Used         : A1,A2,A3,A4,V9,SP,LR,SR,D0,D0_hi,D1,D1_hi,D2,D2_hi, *
;*                           D3,D3_hi,D4,D4_hi,D5,D5_hi,D6,D6_hi,D7,D7_hi,   *
;*                           FPEXC,FPSCR                                     *
;*   Local Frame Size  : 0 Args + 8 Auto + 4 Save = 12 byte                  *
;*****************************************************************************
main:
;* --------------------------------------------------------------------------*
	.dwcfi	cfa_offset, 0
        PUSH      {A2, A3, A4, LR}      ; [DPU_3_PIPE] 
	.dwcfi	cfa_offset, 16
	.dwcfi	save_reg_to_mem, 14, -4
	.dwcfi	save_reg_to_mem, 3, -8
	.dwcfi	save_reg_to_mem, 2, -12
	.dwcfi	save_reg_to_mem, 1, -16
$C$DW$100	.dwtag  DW_TAG_variable, DW_AT_name("i")
	.dwattr $C$DW$100, DW_AT_TI_symbol_name("i")
	.dwattr $C$DW$100, DW_AT_type(*$C$DW$T$10)
	.dwattr $C$DW$100, DW_AT_location[DW_OP_breg13 0]
$C$DW$101	.dwtag  DW_TAG_variable, DW_AT_name("k")
	.dwattr $C$DW$101, DW_AT_TI_symbol_name("k")
	.dwattr $C$DW$101, DW_AT_type(*$C$DW$T$10)
	.dwattr $C$DW$101, DW_AT_location[DW_OP_breg13 4]
	.dwpsn	file "../main.c",line 190,column 2,is_stmt,isa 1
        LDR       A1, $C$CON17          ; [DPU_3_PIPE] |190| 
$C$DW$102	.dwtag  DW_TAG_TI_branch
	.dwattr $C$DW$102, DW_AT_low_pc(0x00)
	.dwattr $C$DW$102, DW_AT_name("SysCtlClockSet")
	.dwattr $C$DW$102, DW_AT_TI_call
        BL        SysCtlClockSet        ; [DPU_3_PIPE] |190| 
        ; CALL OCCURS {SysCtlClockSet }  ; [] |190| 
	.dwpsn	file "../main.c",line 191,column 2,is_stmt,isa 1
$C$DW$103	.dwtag  DW_TAG_TI_branch
	.dwattr $C$DW$103, DW_AT_low_pc(0x00)
	.dwattr $C$DW$103, DW_AT_name("SysTickbegin")
	.dwattr $C$DW$103, DW_AT_TI_call
        BL        SysTickbegin          ; [DPU_3_PIPE] |191| 
        ; CALL OCCURS {SysTickbegin }    ; [] |191| 
	.dwpsn	file "../main.c",line 192,column 2,is_stmt,isa 1
$C$DW$104	.dwtag  DW_TAG_TI_branch
	.dwattr $C$DW$104, DW_AT_low_pc(0x00)
	.dwattr $C$DW$104, DW_AT_name("PWMInit")
	.dwattr $C$DW$104, DW_AT_TI_call
        BL        PWMInit               ; [DPU_3_PIPE] |192| 
        ; CALL OCCURS {PWMInit }         ; [] |192| 
	.dwpsn	file "../main.c",line 196,column 6,is_stmt,isa 1
        MOVS      A1, #0                ; [DPU_3_PIPE] |196| 
        STR       A1, [SP, #0]          ; [DPU_3_PIPE] |196| 
	.dwpsn	file "../main.c",line 196,column 11,is_stmt,isa 1
        LDR       A1, [SP, #0]          ; [DPU_3_PIPE] |196| 
        CMP       A1, #180              ; [DPU_3_PIPE] |196| 
        BGE       ||$C$L8||             ; [DPU_3_PIPE] |196| 
        ; BRANCHCC OCCURS {||$C$L8||}    ; [] |196| 
;* --------------------------------------------------------------------------*
;*   BEGIN LOOP ||$C$L7||
;*
;*   Loop source line                : 196
;*   Loop closing brace source line  : 198
;*   Known Minimum Trip Count        : 1
;*   Known Maximum Trip Count        : 4294967295
;*   Known Max Trip Count Factor     : 1
;* --------------------------------------------------------------------------*
||$C$L7||:    
	.dwpsn	file "../main.c",line 197,column 4,is_stmt,isa 1
        LDR       A1, [SP, #0]          ; [DPU_3_PIPE] |197| 
        LDR       A3, $C$CON9           ; [DPU_3_PIPE] |197| 
        MOVS      A2, #0                ; [DPU_3_PIPE] |197| 
        STRB      A2, [A3, +A1]         ; [DPU_3_PIPE] |197| 
	.dwpsn	file "../main.c",line 196,column 23,is_stmt,isa 1
        LDR       A1, [SP, #0]          ; [DPU_3_PIPE] |196| 
        ADDS      A1, A1, #1            ; [DPU_3_PIPE] |196| 
        STR       A1, [SP, #0]          ; [DPU_3_PIPE] |196| 
	.dwpsn	file "../main.c",line 196,column 11,is_stmt,isa 1
        LDR       A1, [SP, #0]          ; [DPU_3_PIPE] |196| 
        CMP       A1, #180              ; [DPU_3_PIPE] |196| 
        BLT       ||$C$L7||             ; [DPU_3_PIPE] |196| 
        ; BRANCHCC OCCURS {||$C$L7||}    ; [] |196| 
;* --------------------------------------------------------------------------*
||$C$L8||:    
	.dwpsn	file "../main.c",line 205,column 7,is_stmt,isa 1
        MOVS      A1, #0                ; [DPU_3_PIPE] |205| 
        STR       A1, [SP, #4]          ; [DPU_3_PIPE] |205| 
	.dwpsn	file "../main.c",line 206,column 8,is_stmt,isa 1
;* --------------------------------------------------------------------------*
;*   BEGIN LOOP ||$C$L9||
;*
;*   Loop source line                : 206
;*   Loop closing brace source line  : 226
;*   Known Minimum Trip Count        : 1
;*   Known Maximum Trip Count        : 4294967295
;*   Known Max Trip Count Factor     : 1
;* --------------------------------------------------------------------------*
||$C$L9||:    
	.dwpsn	file "../main.c",line 208,column 3,is_stmt,isa 1
        LDR       A1, [SP, #4]          ; [DPU_3_PIPE] |208| 
        CBZ       A1, ||$C$L10||        ; [] 
        ; BRANCHCC OCCURS {||$C$L10||}   ; [] |208| 
;* --------------------------------------------------------------------------*
	.dwpsn	file "../main.c",line 209,column 5,is_stmt,isa 1
        LDR       A1, [SP, #4]          ; [DPU_3_PIPE] |209| 
        LDR       A3, $C$CON9           ; [DPU_3_PIPE] |209| 
        MOVS      A2, #0                ; [DPU_3_PIPE] |209| 
        SUBS      A1, A1, #1            ; [DPU_3_PIPE] |209| 
        STRB      A2, [A3, +A1]         ; [DPU_3_PIPE] |209| 
        B         ||$C$L11||            ; [DPU_3_PIPE] |209| 
        ; BRANCH OCCURS {||$C$L11||}     ; [] |209| 
;* --------------------------------------------------------------------------*
||$C$L10||:    
	.dwpsn	file "../main.c",line 211,column 5,is_stmt,isa 1
        LDR       A2, $C$CON18          ; [DPU_3_PIPE] |211| 
        MOVS      A1, #0                ; [DPU_3_PIPE] |211| 
        STRB      A1, [A2, #0]          ; [DPU_3_PIPE] |211| 
;* --------------------------------------------------------------------------*
||$C$L11||:    
	.dwpsn	file "../main.c",line 212,column 3,is_stmt,isa 1
        LDR       A1, [SP, #4]          ; [DPU_3_PIPE] |212| 
        LDR       A3, $C$CON9           ; [DPU_3_PIPE] |212| 
        MOVS      A2, #255              ; [DPU_3_PIPE] |212| 
        STRB      A2, [A3, +A1]         ; [DPU_3_PIPE] |212| 
	.dwpsn	file "../main.c",line 213,column 3,is_stmt,isa 1
        LDR       A1, [SP, #4]          ; [DPU_3_PIPE] |213| 
        ADDS      A1, A1, #1            ; [DPU_3_PIPE] |213| 
        STR       A1, [SP, #4]          ; [DPU_3_PIPE] |213| 
	.dwpsn	file "../main.c",line 214,column 3,is_stmt,isa 1
        LDR       A1, [SP, #4]          ; [DPU_3_PIPE] |214| 
        CMP       A1, #180              ; [DPU_3_PIPE] |214| 
        BLT       ||$C$L12||            ; [DPU_3_PIPE] |214| 
        ; BRANCHCC OCCURS {||$C$L12||}   ; [] |214| 
;* --------------------------------------------------------------------------*
	.dwpsn	file "../main.c",line 215,column 5,is_stmt,isa 1
        MOVS      A1, #0                ; [DPU_3_PIPE] |215| 
        STR       A1, [SP, #4]          ; [DPU_3_PIPE] |215| 
;* --------------------------------------------------------------------------*
||$C$L12||:    
	.dwpsn	file "../main.c",line 221,column 3,is_stmt,isa 1
        LDR       A1, $C$CON19          ; [DPU_3_PIPE] |221| 
        LDR       A1, [A1, #0]          ; [DPU_3_PIPE] |221| 
$C$DW$105	.dwtag  DW_TAG_TI_branch
	.dwattr $C$DW$105, DW_AT_low_pc(0x00)
	.dwattr $C$DW$105, DW_AT_name("Wait")
	.dwattr $C$DW$105, DW_AT_TI_call
        BL        Wait                  ; [DPU_3_PIPE] |221| 
        ; CALL OCCURS {Wait }            ; [] |221| 
	.dwpsn	file "../main.c",line 224,column 3,is_stmt,isa 1
$C$DW$106	.dwtag  DW_TAG_TI_branch
	.dwattr $C$DW$106, DW_AT_low_pc(0x00)
	.dwattr $C$DW$106, DW_AT_name("SendData")
	.dwattr $C$DW$106, DW_AT_TI_call
        BL        SendData              ; [DPU_3_PIPE] |224| 
        ; CALL OCCURS {SendData }        ; [] |224| 
	.dwpsn	file "../main.c",line 206,column 8,is_stmt,isa 1
        B         ||$C$L9||             ; [DPU_3_PIPE] |206| 
        ; BRANCH OCCURS {||$C$L9||}      ; [] |206| 
;* --------------------------------------------------------------------------*
	.dwattr $C$DW$99, DW_AT_TI_end_file("../main.c")
	.dwattr $C$DW$99, DW_AT_TI_end_line(0xe3)
	.dwattr $C$DW$99, DW_AT_TI_end_column(0x01)
	.dwendentry
	.dwendtag $C$DW$99

;******************************************************************************
;* CONSTANT TABLE                                                             *
;******************************************************************************
	.sect	".text"
	.align	4
||$C$CON1||:	.bits	millis,32
	.align	4
||$C$CON2||:	.bits	80000,32
	.align	4
||$C$CON3||:	.bits	SycTickInt,32
	.align	4
||$C$CON4||:	.bits	1073938468,32
	.align	4
||$C$CON5||:	.bits	1073938464,32
	.align	4
||$C$CON6||:	.bits	LEDCounter,32
	.align	4
||$C$CON7||:	.bits	1073938432,32
	.align	4
||$C$CON8||:	.bits	1073893376,32
	.align	4
||$C$CON9||:	.bits	values,32
	.align	4
||$C$CON10||:	.bits	1073938484,32
	.align	4
||$C$CON11||:	.bits	-268433403,32
	.align	4
||$C$CON12||:	.bits	328711,32
	.align	4
||$C$CON13||:	.bits	-268434432,32
	.align	4
||$C$CON14||:	.bits	67111424,32
	.align	4
||$C$CON15||:	.bits	1073939456,32
	.align	4
||$C$CON16||:	.bits	TimerInt,32
	.align	4
||$C$CON17||:	.bits	-1056963264,32
	.align	4
||$C$CON18||:	.bits	values+179,32
	.align	4
||$C$CON19||:	.bits	time,32
;*****************************************************************************
;* UNDEFINED EXTERNAL REFERENCES                                             *
;*****************************************************************************
	.global	TimerEnable
	.global	TimerDisable
	.global	TimerConfigure
	.global	TimerControlEvent
	.global	TimerLoadSet
	.global	TimerMatchSet
	.global	TimerIntRegister
	.global	TimerIntEnable
	.global	GPIOPinWrite
	.global	GPIOPinConfigure
	.global	GPIOPinTypeGPIOOutput
	.global	GPIOPinTypeTimer
	.global	IntEnable
	.global	SysCtlPeripheralEnable
	.global	SysCtlDelay
	.global	SysCtlClockSet
	.global	SysTickEnable
	.global	SysTickIntRegister
	.global	SysTickIntEnable
	.global	SysTickPeriodSet

;******************************************************************************
;* BUILD ATTRIBUTES                                                           *
;******************************************************************************
	.battr "aeabi", Tag_File, 1, Tag_ABI_PCS_wchar_t(2)
	.battr "aeabi", Tag_File, 1, Tag_ABI_FP_rounding(0)
	.battr "aeabi", Tag_File, 1, Tag_ABI_FP_denormal(0)
	.battr "aeabi", Tag_File, 1, Tag_ABI_FP_exceptions(0)
	.battr "aeabi", Tag_File, 1, Tag_ABI_FP_number_model(1)
	.battr "aeabi", Tag_File, 1, Tag_ABI_enum_size(0)
	.battr "aeabi", Tag_File, 1, Tag_ABI_optimization_goals(5)
	.battr "aeabi", Tag_File, 1, Tag_ABI_FP_optimization_goals(0)
	.battr "TI", Tag_File, 1, Tag_Bitfield_layout(2)
	.battr "TI", Tag_File, 1, Tag_FP_interface(1)

;******************************************************************************
;* TYPE INFORMATION                                                           *
;******************************************************************************

$C$DW$T$19	.dwtag  DW_TAG_structure_type
	.dwattr $C$DW$T$19, DW_AT_byte_size(0x08)
$C$DW$107	.dwtag  DW_TAG_member
	.dwattr $C$DW$107, DW_AT_type(*$C$DW$T$10)
	.dwattr $C$DW$107, DW_AT_name("quot")
	.dwattr $C$DW$107, DW_AT_TI_symbol_name("quot")
	.dwattr $C$DW$107, DW_AT_data_member_location[DW_OP_plus_uconst 0x0]
	.dwattr $C$DW$107, DW_AT_accessibility(DW_ACCESS_public)
	.dwattr $C$DW$107, DW_AT_decl_file("c:/ti/ccsv6/tools/compiler/arm_5.1.6/include/stdlib.h")
	.dwattr $C$DW$107, DW_AT_decl_line(0x50)
	.dwattr $C$DW$107, DW_AT_decl_column(0x16)
$C$DW$108	.dwtag  DW_TAG_member
	.dwattr $C$DW$108, DW_AT_type(*$C$DW$T$10)
	.dwattr $C$DW$108, DW_AT_name("rem")
	.dwattr $C$DW$108, DW_AT_TI_symbol_name("rem")
	.dwattr $C$DW$108, DW_AT_data_member_location[DW_OP_plus_uconst 0x4]
	.dwattr $C$DW$108, DW_AT_accessibility(DW_ACCESS_public)
	.dwattr $C$DW$108, DW_AT_decl_file("c:/ti/ccsv6/tools/compiler/arm_5.1.6/include/stdlib.h")
	.dwattr $C$DW$108, DW_AT_decl_line(0x50)
	.dwattr $C$DW$108, DW_AT_decl_column(0x1c)
	.dwendtag $C$DW$T$19

	.dwattr $C$DW$T$19, DW_AT_decl_file("c:/ti/ccsv6/tools/compiler/arm_5.1.6/include/stdlib.h")
	.dwattr $C$DW$T$19, DW_AT_decl_line(0x50)
	.dwattr $C$DW$T$19, DW_AT_decl_column(0x10)
$C$DW$T$28	.dwtag  DW_TAG_typedef, DW_AT_name("div_t")
	.dwattr $C$DW$T$28, DW_AT_type(*$C$DW$T$19)
	.dwattr $C$DW$T$28, DW_AT_language(DW_LANG_C)
	.dwattr $C$DW$T$28, DW_AT_decl_file("c:/ti/ccsv6/tools/compiler/arm_5.1.6/include/stdlib.h")
	.dwattr $C$DW$T$28, DW_AT_decl_line(0x50)
	.dwattr $C$DW$T$28, DW_AT_decl_column(0x23)

$C$DW$T$20	.dwtag  DW_TAG_structure_type
	.dwattr $C$DW$T$20, DW_AT_byte_size(0x08)
$C$DW$109	.dwtag  DW_TAG_member
	.dwattr $C$DW$109, DW_AT_type(*$C$DW$T$10)
	.dwattr $C$DW$109, DW_AT_name("quot")
	.dwattr $C$DW$109, DW_AT_TI_symbol_name("quot")
	.dwattr $C$DW$109, DW_AT_data_member_location[DW_OP_plus_uconst 0x0]
	.dwattr $C$DW$109, DW_AT_accessibility(DW_ACCESS_public)
	.dwattr $C$DW$109, DW_AT_decl_file("c:/ti/ccsv6/tools/compiler/arm_5.1.6/include/stdlib.h")
	.dwattr $C$DW$109, DW_AT_decl_line(0x52)
	.dwattr $C$DW$109, DW_AT_decl_column(0x16)
$C$DW$110	.dwtag  DW_TAG_member
	.dwattr $C$DW$110, DW_AT_type(*$C$DW$T$10)
	.dwattr $C$DW$110, DW_AT_name("rem")
	.dwattr $C$DW$110, DW_AT_TI_symbol_name("rem")
	.dwattr $C$DW$110, DW_AT_data_member_location[DW_OP_plus_uconst 0x4]
	.dwattr $C$DW$110, DW_AT_accessibility(DW_ACCESS_public)
	.dwattr $C$DW$110, DW_AT_decl_file("c:/ti/ccsv6/tools/compiler/arm_5.1.6/include/stdlib.h")
	.dwattr $C$DW$110, DW_AT_decl_line(0x52)
	.dwattr $C$DW$110, DW_AT_decl_column(0x1c)
	.dwendtag $C$DW$T$20

	.dwattr $C$DW$T$20, DW_AT_decl_file("c:/ti/ccsv6/tools/compiler/arm_5.1.6/include/stdlib.h")
	.dwattr $C$DW$T$20, DW_AT_decl_line(0x52)
	.dwattr $C$DW$T$20, DW_AT_decl_column(0x10)
$C$DW$T$29	.dwtag  DW_TAG_typedef, DW_AT_name("ldiv_t")
	.dwattr $C$DW$T$29, DW_AT_type(*$C$DW$T$20)
	.dwattr $C$DW$T$29, DW_AT_language(DW_LANG_C)
	.dwattr $C$DW$T$29, DW_AT_decl_file("c:/ti/ccsv6/tools/compiler/arm_5.1.6/include/stdlib.h")
	.dwattr $C$DW$T$29, DW_AT_decl_line(0x52)
	.dwattr $C$DW$T$29, DW_AT_decl_column(0x23)

$C$DW$T$21	.dwtag  DW_TAG_structure_type
	.dwattr $C$DW$T$21, DW_AT_byte_size(0x10)
$C$DW$111	.dwtag  DW_TAG_member
	.dwattr $C$DW$111, DW_AT_type(*$C$DW$T$14)
	.dwattr $C$DW$111, DW_AT_name("quot")
	.dwattr $C$DW$111, DW_AT_TI_symbol_name("quot")
	.dwattr $C$DW$111, DW_AT_data_member_location[DW_OP_plus_uconst 0x0]
	.dwattr $C$DW$111, DW_AT_accessibility(DW_ACCESS_public)
	.dwattr $C$DW$111, DW_AT_decl_file("c:/ti/ccsv6/tools/compiler/arm_5.1.6/include/stdlib.h")
	.dwattr $C$DW$111, DW_AT_decl_line(0x55)
	.dwattr $C$DW$111, DW_AT_decl_column(0x1c)
$C$DW$112	.dwtag  DW_TAG_member
	.dwattr $C$DW$112, DW_AT_type(*$C$DW$T$14)
	.dwattr $C$DW$112, DW_AT_name("rem")
	.dwattr $C$DW$112, DW_AT_TI_symbol_name("rem")
	.dwattr $C$DW$112, DW_AT_data_member_location[DW_OP_plus_uconst 0x8]
	.dwattr $C$DW$112, DW_AT_accessibility(DW_ACCESS_public)
	.dwattr $C$DW$112, DW_AT_decl_file("c:/ti/ccsv6/tools/compiler/arm_5.1.6/include/stdlib.h")
	.dwattr $C$DW$112, DW_AT_decl_line(0x55)
	.dwattr $C$DW$112, DW_AT_decl_column(0x22)
	.dwendtag $C$DW$T$21

	.dwattr $C$DW$T$21, DW_AT_decl_file("c:/ti/ccsv6/tools/compiler/arm_5.1.6/include/stdlib.h")
	.dwattr $C$DW$T$21, DW_AT_decl_line(0x55)
	.dwattr $C$DW$T$21, DW_AT_decl_column(0x10)
$C$DW$T$30	.dwtag  DW_TAG_typedef, DW_AT_name("lldiv_t")
	.dwattr $C$DW$T$30, DW_AT_type(*$C$DW$T$21)
	.dwattr $C$DW$T$30, DW_AT_language(DW_LANG_C)
	.dwattr $C$DW$T$30, DW_AT_decl_file("c:/ti/ccsv6/tools/compiler/arm_5.1.6/include/stdlib.h")
	.dwattr $C$DW$T$30, DW_AT_decl_line(0x55)
	.dwattr $C$DW$T$30, DW_AT_decl_column(0x29)

$C$DW$T$26	.dwtag  DW_TAG_structure_type
	.dwattr $C$DW$T$26, DW_AT_byte_size(0x10)
$C$DW$113	.dwtag  DW_TAG_member
	.dwattr $C$DW$113, DW_AT_type(*$C$DW$T$23)
	.dwattr $C$DW$113, DW_AT_name("pvSrcEndAddr")
	.dwattr $C$DW$113, DW_AT_TI_symbol_name("pvSrcEndAddr")
	.dwattr $C$DW$113, DW_AT_data_member_location[DW_OP_plus_uconst 0x0]
	.dwattr $C$DW$113, DW_AT_accessibility(DW_ACCESS_public)
	.dwattr $C$DW$113, DW_AT_decl_file("C:/ti/TivaWare_C_Series-2.1.0.12573/driverlib/udma.h")
	.dwattr $C$DW$113, DW_AT_decl_line(0x49)
	.dwattr $C$DW$113, DW_AT_decl_column(0x14)
$C$DW$114	.dwtag  DW_TAG_member
	.dwattr $C$DW$114, DW_AT_type(*$C$DW$T$23)
	.dwattr $C$DW$114, DW_AT_name("pvDstEndAddr")
	.dwattr $C$DW$114, DW_AT_TI_symbol_name("pvDstEndAddr")
	.dwattr $C$DW$114, DW_AT_data_member_location[DW_OP_plus_uconst 0x4]
	.dwattr $C$DW$114, DW_AT_accessibility(DW_ACCESS_public)
	.dwattr $C$DW$114, DW_AT_decl_file("C:/ti/TivaWare_C_Series-2.1.0.12573/driverlib/udma.h")
	.dwattr $C$DW$114, DW_AT_decl_line(0x4e)
	.dwattr $C$DW$114, DW_AT_decl_column(0x14)
$C$DW$115	.dwtag  DW_TAG_member
	.dwattr $C$DW$115, DW_AT_type(*$C$DW$T$25)
	.dwattr $C$DW$115, DW_AT_name("ui32Control")
	.dwattr $C$DW$115, DW_AT_TI_symbol_name("ui32Control")
	.dwattr $C$DW$115, DW_AT_data_member_location[DW_OP_plus_uconst 0x8]
	.dwattr $C$DW$115, DW_AT_accessibility(DW_ACCESS_public)
	.dwattr $C$DW$115, DW_AT_decl_file("C:/ti/TivaWare_C_Series-2.1.0.12573/driverlib/udma.h")
	.dwattr $C$DW$115, DW_AT_decl_line(0x53)
	.dwattr $C$DW$115, DW_AT_decl_column(0x17)
$C$DW$116	.dwtag  DW_TAG_member
	.dwattr $C$DW$116, DW_AT_type(*$C$DW$T$25)
	.dwattr $C$DW$116, DW_AT_name("ui32Spare")
	.dwattr $C$DW$116, DW_AT_TI_symbol_name("ui32Spare")
	.dwattr $C$DW$116, DW_AT_data_member_location[DW_OP_plus_uconst 0xc]
	.dwattr $C$DW$116, DW_AT_accessibility(DW_ACCESS_public)
	.dwattr $C$DW$116, DW_AT_decl_file("C:/ti/TivaWare_C_Series-2.1.0.12573/driverlib/udma.h")
	.dwattr $C$DW$116, DW_AT_decl_line(0x58)
	.dwattr $C$DW$116, DW_AT_decl_column(0x17)
	.dwendtag $C$DW$T$26

	.dwattr $C$DW$T$26, DW_AT_decl_file("C:/ti/TivaWare_C_Series-2.1.0.12573/driverlib/udma.h")
	.dwattr $C$DW$T$26, DW_AT_decl_line(0x45)
	.dwattr $C$DW$T$26, DW_AT_decl_column(0x01)
$C$DW$T$31	.dwtag  DW_TAG_typedef, DW_AT_name("tDMAControlTable")
	.dwattr $C$DW$T$31, DW_AT_type(*$C$DW$T$26)
	.dwattr $C$DW$T$31, DW_AT_language(DW_LANG_C)
	.dwattr $C$DW$T$31, DW_AT_decl_file("C:/ti/TivaWare_C_Series-2.1.0.12573/driverlib/udma.h")
	.dwattr $C$DW$T$31, DW_AT_decl_line(0x5a)
	.dwattr $C$DW$T$31, DW_AT_decl_column(0x01)
$C$DW$T$2	.dwtag  DW_TAG_unspecified_type
	.dwattr $C$DW$T$2, DW_AT_name("void")
$C$DW$T$3	.dwtag  DW_TAG_pointer_type
	.dwattr $C$DW$T$3, DW_AT_type(*$C$DW$T$2)
	.dwattr $C$DW$T$3, DW_AT_address_class(0x20)
$C$DW$T$22	.dwtag  DW_TAG_volatile_type
	.dwattr $C$DW$T$22, DW_AT_type(*$C$DW$T$2)
$C$DW$T$23	.dwtag  DW_TAG_pointer_type
	.dwattr $C$DW$T$23, DW_AT_type(*$C$DW$T$22)
	.dwattr $C$DW$T$23, DW_AT_address_class(0x20)

$C$DW$T$36	.dwtag  DW_TAG_subroutine_type
	.dwattr $C$DW$T$36, DW_AT_language(DW_LANG_C)
$C$DW$T$37	.dwtag  DW_TAG_pointer_type
	.dwattr $C$DW$T$37, DW_AT_type(*$C$DW$T$36)
	.dwattr $C$DW$T$37, DW_AT_address_class(0x20)
$C$DW$T$38	.dwtag  DW_TAG_typedef, DW_AT_name("__TI_atexit_fn")
	.dwattr $C$DW$T$38, DW_AT_type(*$C$DW$T$37)
	.dwattr $C$DW$T$38, DW_AT_language(DW_LANG_C)
	.dwattr $C$DW$T$38, DW_AT_decl_file("c:/ti/ccsv6/tools/compiler/arm_5.1.6/include/stdlib.h")
	.dwattr $C$DW$T$38, DW_AT_decl_line(0xa3)
	.dwattr $C$DW$T$38, DW_AT_decl_column(0x14)
$C$DW$T$52	.dwtag  DW_TAG_const_type
	.dwattr $C$DW$T$52, DW_AT_type(*$C$DW$T$2)
$C$DW$T$53	.dwtag  DW_TAG_pointer_type
	.dwattr $C$DW$T$53, DW_AT_type(*$C$DW$T$52)
	.dwattr $C$DW$T$53, DW_AT_address_class(0x20)
$C$DW$T$4	.dwtag  DW_TAG_base_type
	.dwattr $C$DW$T$4, DW_AT_encoding(DW_ATE_boolean)
	.dwattr $C$DW$T$4, DW_AT_name("bool")
	.dwattr $C$DW$T$4, DW_AT_byte_size(0x01)
$C$DW$T$5	.dwtag  DW_TAG_base_type
	.dwattr $C$DW$T$5, DW_AT_encoding(DW_ATE_signed_char)
	.dwattr $C$DW$T$5, DW_AT_name("signed char")
	.dwattr $C$DW$T$5, DW_AT_byte_size(0x01)
$C$DW$T$54	.dwtag  DW_TAG_typedef, DW_AT_name("int8_t")
	.dwattr $C$DW$T$54, DW_AT_type(*$C$DW$T$5)
	.dwattr $C$DW$T$54, DW_AT_language(DW_LANG_C)
	.dwattr $C$DW$T$54, DW_AT_decl_file("c:/ti/ccsv6/tools/compiler/arm_5.1.6/include/stdint.h")
	.dwattr $C$DW$T$54, DW_AT_decl_line(0x2a)
	.dwattr $C$DW$T$54, DW_AT_decl_column(0x1d)
$C$DW$T$55	.dwtag  DW_TAG_typedef, DW_AT_name("int_least8_t")
	.dwattr $C$DW$T$55, DW_AT_type(*$C$DW$T$54)
	.dwattr $C$DW$T$55, DW_AT_language(DW_LANG_C)
	.dwattr $C$DW$T$55, DW_AT_decl_file("c:/ti/ccsv6/tools/compiler/arm_5.1.6/include/stdint.h")
	.dwattr $C$DW$T$55, DW_AT_decl_line(0x37)
	.dwattr $C$DW$T$55, DW_AT_decl_column(0x17)
$C$DW$T$6	.dwtag  DW_TAG_base_type
	.dwattr $C$DW$T$6, DW_AT_encoding(DW_ATE_unsigned_char)
	.dwattr $C$DW$T$6, DW_AT_name("unsigned char")
	.dwattr $C$DW$T$6, DW_AT_byte_size(0x01)
$C$DW$T$56	.dwtag  DW_TAG_typedef, DW_AT_name("_Bool")
	.dwattr $C$DW$T$56, DW_AT_type(*$C$DW$T$6)
	.dwattr $C$DW$T$56, DW_AT_language(DW_LANG_C)
	.dwattr $C$DW$T$56, DW_AT_decl_file("c:/ti/ccsv6/tools/compiler/arm_5.1.6/include/stdbool.h")
	.dwattr $C$DW$T$56, DW_AT_decl_line(0x14)
	.dwattr $C$DW$T$56, DW_AT_decl_column(0x17)
$C$DW$T$41	.dwtag  DW_TAG_typedef, DW_AT_name("uint8_t")
	.dwattr $C$DW$T$41, DW_AT_type(*$C$DW$T$6)
	.dwattr $C$DW$T$41, DW_AT_language(DW_LANG_C)
	.dwattr $C$DW$T$41, DW_AT_decl_file("c:/ti/ccsv6/tools/compiler/arm_5.1.6/include/stdint.h")
	.dwattr $C$DW$T$41, DW_AT_decl_line(0x2b)
	.dwattr $C$DW$T$41, DW_AT_decl_column(0x1c)

$C$DW$T$57	.dwtag  DW_TAG_array_type
	.dwattr $C$DW$T$57, DW_AT_type(*$C$DW$T$41)
	.dwattr $C$DW$T$57, DW_AT_language(DW_LANG_C)
	.dwattr $C$DW$T$57, DW_AT_byte_size(0xb4)
$C$DW$117	.dwtag  DW_TAG_subrange_type
	.dwattr $C$DW$117, DW_AT_upper_bound(0xb3)
	.dwendtag $C$DW$T$57

$C$DW$T$59	.dwtag  DW_TAG_typedef, DW_AT_name("uint_least8_t")
	.dwattr $C$DW$T$59, DW_AT_type(*$C$DW$T$41)
	.dwattr $C$DW$T$59, DW_AT_language(DW_LANG_C)
	.dwattr $C$DW$T$59, DW_AT_decl_file("c:/ti/ccsv6/tools/compiler/arm_5.1.6/include/stdint.h")
	.dwattr $C$DW$T$59, DW_AT_decl_line(0x38)
	.dwattr $C$DW$T$59, DW_AT_decl_column(0x16)
$C$DW$T$7	.dwtag  DW_TAG_base_type
	.dwattr $C$DW$T$7, DW_AT_encoding(DW_ATE_signed_char)
	.dwattr $C$DW$T$7, DW_AT_name("wchar_t")
	.dwattr $C$DW$T$7, DW_AT_byte_size(0x02)
$C$DW$T$8	.dwtag  DW_TAG_base_type
	.dwattr $C$DW$T$8, DW_AT_encoding(DW_ATE_signed)
	.dwattr $C$DW$T$8, DW_AT_name("short")
	.dwattr $C$DW$T$8, DW_AT_byte_size(0x02)
$C$DW$T$60	.dwtag  DW_TAG_typedef, DW_AT_name("int16_t")
	.dwattr $C$DW$T$60, DW_AT_type(*$C$DW$T$8)
	.dwattr $C$DW$T$60, DW_AT_language(DW_LANG_C)
	.dwattr $C$DW$T$60, DW_AT_decl_file("c:/ti/ccsv6/tools/compiler/arm_5.1.6/include/stdint.h")
	.dwattr $C$DW$T$60, DW_AT_decl_line(0x2c)
	.dwattr $C$DW$T$60, DW_AT_decl_column(0x1d)
$C$DW$T$61	.dwtag  DW_TAG_typedef, DW_AT_name("int_least16_t")
	.dwattr $C$DW$T$61, DW_AT_type(*$C$DW$T$60)
	.dwattr $C$DW$T$61, DW_AT_language(DW_LANG_C)
	.dwattr $C$DW$T$61, DW_AT_decl_file("c:/ti/ccsv6/tools/compiler/arm_5.1.6/include/stdint.h")
	.dwattr $C$DW$T$61, DW_AT_decl_line(0x3a)
	.dwattr $C$DW$T$61, DW_AT_decl_column(0x17)
$C$DW$T$9	.dwtag  DW_TAG_base_type
	.dwattr $C$DW$T$9, DW_AT_encoding(DW_ATE_unsigned)
	.dwattr $C$DW$T$9, DW_AT_name("unsigned short")
	.dwattr $C$DW$T$9, DW_AT_byte_size(0x02)
$C$DW$T$62	.dwtag  DW_TAG_typedef, DW_AT_name("_Wchart")
	.dwattr $C$DW$T$62, DW_AT_type(*$C$DW$T$9)
	.dwattr $C$DW$T$62, DW_AT_language(DW_LANG_C)
	.dwattr $C$DW$T$62, DW_AT_decl_file("c:/ti/ccsv6/tools/compiler/arm_5.1.6/include/yvals.h")
	.dwattr $C$DW$T$62, DW_AT_decl_line(0x1fe)
	.dwattr $C$DW$T$62, DW_AT_decl_column(0x21)
$C$DW$T$63	.dwtag  DW_TAG_typedef, DW_AT_name("_Wintt")
	.dwattr $C$DW$T$63, DW_AT_type(*$C$DW$T$9)
	.dwattr $C$DW$T$63, DW_AT_language(DW_LANG_C)
	.dwattr $C$DW$T$63, DW_AT_decl_file("c:/ti/ccsv6/tools/compiler/arm_5.1.6/include/yvals.h")
	.dwattr $C$DW$T$63, DW_AT_decl_line(0x1ff)
	.dwattr $C$DW$T$63, DW_AT_decl_column(0x21)
$C$DW$T$64	.dwtag  DW_TAG_typedef, DW_AT_name("uint16_t")
	.dwattr $C$DW$T$64, DW_AT_type(*$C$DW$T$9)
	.dwattr $C$DW$T$64, DW_AT_language(DW_LANG_C)
	.dwattr $C$DW$T$64, DW_AT_decl_file("c:/ti/ccsv6/tools/compiler/arm_5.1.6/include/stdint.h")
	.dwattr $C$DW$T$64, DW_AT_decl_line(0x2d)
	.dwattr $C$DW$T$64, DW_AT_decl_column(0x1c)
$C$DW$T$65	.dwtag  DW_TAG_typedef, DW_AT_name("uint_least16_t")
	.dwattr $C$DW$T$65, DW_AT_type(*$C$DW$T$64)
	.dwattr $C$DW$T$65, DW_AT_language(DW_LANG_C)
	.dwattr $C$DW$T$65, DW_AT_decl_file("c:/ti/ccsv6/tools/compiler/arm_5.1.6/include/stdint.h")
	.dwattr $C$DW$T$65, DW_AT_decl_line(0x3b)
	.dwattr $C$DW$T$65, DW_AT_decl_column(0x16)
$C$DW$T$66	.dwtag  DW_TAG_typedef, DW_AT_name("wchar_t")
	.dwattr $C$DW$T$66, DW_AT_type(*$C$DW$T$9)
	.dwattr $C$DW$T$66, DW_AT_language(DW_LANG_C)
	.dwattr $C$DW$T$66, DW_AT_decl_file("c:/ti/ccsv6/tools/compiler/arm_5.1.6/include/stdlib.h")
	.dwattr $C$DW$T$66, DW_AT_decl_line(0x6a)
	.dwattr $C$DW$T$66, DW_AT_decl_column(0x1a)
$C$DW$T$10	.dwtag  DW_TAG_base_type
	.dwattr $C$DW$T$10, DW_AT_encoding(DW_ATE_signed)
	.dwattr $C$DW$T$10, DW_AT_name("int")
	.dwattr $C$DW$T$10, DW_AT_byte_size(0x04)
$C$DW$T$67	.dwtag  DW_TAG_typedef, DW_AT_name("_Ptrdifft")
	.dwattr $C$DW$T$67, DW_AT_type(*$C$DW$T$10)
	.dwattr $C$DW$T$67, DW_AT_language(DW_LANG_C)
	.dwattr $C$DW$T$67, DW_AT_decl_file("c:/ti/ccsv6/tools/compiler/arm_5.1.6/include/yvals.h")
	.dwattr $C$DW$T$67, DW_AT_decl_line(0xa6)
	.dwattr $C$DW$T$67, DW_AT_decl_column(0x1e)

$C$DW$T$69	.dwtag  DW_TAG_subroutine_type
	.dwattr $C$DW$T$69, DW_AT_type(*$C$DW$T$10)
	.dwattr $C$DW$T$69, DW_AT_language(DW_LANG_C)
$C$DW$118	.dwtag  DW_TAG_formal_parameter
	.dwattr $C$DW$118, DW_AT_type(*$C$DW$T$53)
$C$DW$119	.dwtag  DW_TAG_formal_parameter
	.dwattr $C$DW$119, DW_AT_type(*$C$DW$T$53)
	.dwendtag $C$DW$T$69

$C$DW$T$70	.dwtag  DW_TAG_pointer_type
	.dwattr $C$DW$T$70, DW_AT_type(*$C$DW$T$69)
	.dwattr $C$DW$T$70, DW_AT_address_class(0x20)
$C$DW$T$71	.dwtag  DW_TAG_typedef, DW_AT_name("__TI_compar_fn")
	.dwattr $C$DW$T$71, DW_AT_type(*$C$DW$T$70)
	.dwattr $C$DW$T$71, DW_AT_language(DW_LANG_C)
	.dwattr $C$DW$T$71, DW_AT_decl_file("c:/ti/ccsv6/tools/compiler/arm_5.1.6/include/stdlib.h")
	.dwattr $C$DW$T$71, DW_AT_decl_line(0xa6)
	.dwattr $C$DW$T$71, DW_AT_decl_column(0x13)
$C$DW$T$72	.dwtag  DW_TAG_typedef, DW_AT_name("int32_t")
	.dwattr $C$DW$T$72, DW_AT_type(*$C$DW$T$10)
	.dwattr $C$DW$T$72, DW_AT_language(DW_LANG_C)
	.dwattr $C$DW$T$72, DW_AT_decl_file("c:/ti/ccsv6/tools/compiler/arm_5.1.6/include/stdint.h")
	.dwattr $C$DW$T$72, DW_AT_decl_line(0x2e)
	.dwattr $C$DW$T$72, DW_AT_decl_column(0x1d)
$C$DW$T$73	.dwtag  DW_TAG_typedef, DW_AT_name("int_fast16_t")
	.dwattr $C$DW$T$73, DW_AT_type(*$C$DW$T$72)
	.dwattr $C$DW$T$73, DW_AT_language(DW_LANG_C)
	.dwattr $C$DW$T$73, DW_AT_decl_file("c:/ti/ccsv6/tools/compiler/arm_5.1.6/include/stdint.h")
	.dwattr $C$DW$T$73, DW_AT_decl_line(0x47)
	.dwattr $C$DW$T$73, DW_AT_decl_column(0x17)
$C$DW$T$74	.dwtag  DW_TAG_typedef, DW_AT_name("int_fast32_t")
	.dwattr $C$DW$T$74, DW_AT_type(*$C$DW$T$72)
	.dwattr $C$DW$T$74, DW_AT_language(DW_LANG_C)
	.dwattr $C$DW$T$74, DW_AT_decl_file("c:/ti/ccsv6/tools/compiler/arm_5.1.6/include/stdint.h")
	.dwattr $C$DW$T$74, DW_AT_decl_line(0x4a)
	.dwattr $C$DW$T$74, DW_AT_decl_column(0x17)
$C$DW$T$75	.dwtag  DW_TAG_typedef, DW_AT_name("int_fast8_t")
	.dwattr $C$DW$T$75, DW_AT_type(*$C$DW$T$72)
	.dwattr $C$DW$T$75, DW_AT_language(DW_LANG_C)
	.dwattr $C$DW$T$75, DW_AT_decl_file("c:/ti/ccsv6/tools/compiler/arm_5.1.6/include/stdint.h")
	.dwattr $C$DW$T$75, DW_AT_decl_line(0x45)
	.dwattr $C$DW$T$75, DW_AT_decl_column(0x17)
$C$DW$T$76	.dwtag  DW_TAG_typedef, DW_AT_name("int_least32_t")
	.dwattr $C$DW$T$76, DW_AT_type(*$C$DW$T$72)
	.dwattr $C$DW$T$76, DW_AT_language(DW_LANG_C)
	.dwattr $C$DW$T$76, DW_AT_decl_file("c:/ti/ccsv6/tools/compiler/arm_5.1.6/include/stdint.h")
	.dwattr $C$DW$T$76, DW_AT_decl_line(0x3c)
	.dwattr $C$DW$T$76, DW_AT_decl_column(0x17)
$C$DW$T$77	.dwtag  DW_TAG_typedef, DW_AT_name("intptr_t")
	.dwattr $C$DW$T$77, DW_AT_type(*$C$DW$T$10)
	.dwattr $C$DW$T$77, DW_AT_language(DW_LANG_C)
	.dwattr $C$DW$T$77, DW_AT_decl_file("c:/ti/ccsv6/tools/compiler/arm_5.1.6/include/stdint.h")
	.dwattr $C$DW$T$77, DW_AT_decl_line(0x52)
	.dwattr $C$DW$T$77, DW_AT_decl_column(0x1a)
$C$DW$T$11	.dwtag  DW_TAG_base_type
	.dwattr $C$DW$T$11, DW_AT_encoding(DW_ATE_unsigned)
	.dwattr $C$DW$T$11, DW_AT_name("unsigned int")
	.dwattr $C$DW$T$11, DW_AT_byte_size(0x04)
$C$DW$T$78	.dwtag  DW_TAG_typedef, DW_AT_name("_Sizet")
	.dwattr $C$DW$T$78, DW_AT_type(*$C$DW$T$11)
	.dwattr $C$DW$T$78, DW_AT_language(DW_LANG_C)
	.dwattr $C$DW$T$78, DW_AT_decl_file("c:/ti/ccsv6/tools/compiler/arm_5.1.6/include/yvals.h")
	.dwattr $C$DW$T$78, DW_AT_decl_line(0xac)
	.dwattr $C$DW$T$78, DW_AT_decl_column(0x1a)
$C$DW$T$79	.dwtag  DW_TAG_typedef, DW_AT_name("size_t")
	.dwattr $C$DW$T$79, DW_AT_type(*$C$DW$T$11)
	.dwattr $C$DW$T$79, DW_AT_language(DW_LANG_C)
	.dwattr $C$DW$T$79, DW_AT_decl_file("c:/ti/ccsv6/tools/compiler/arm_5.1.6/include/stdlib.h")
	.dwattr $C$DW$T$79, DW_AT_decl_line(0x64)
	.dwattr $C$DW$T$79, DW_AT_decl_column(0x19)
$C$DW$T$24	.dwtag  DW_TAG_typedef, DW_AT_name("uint32_t")
	.dwattr $C$DW$T$24, DW_AT_type(*$C$DW$T$11)
	.dwattr $C$DW$T$24, DW_AT_language(DW_LANG_C)
	.dwattr $C$DW$T$24, DW_AT_decl_file("c:/ti/ccsv6/tools/compiler/arm_5.1.6/include/stdint.h")
	.dwattr $C$DW$T$24, DW_AT_decl_line(0x2f)
	.dwattr $C$DW$T$24, DW_AT_decl_column(0x1c)
$C$DW$T$25	.dwtag  DW_TAG_volatile_type
	.dwattr $C$DW$T$25, DW_AT_type(*$C$DW$T$24)
$C$DW$T$81	.dwtag  DW_TAG_typedef, DW_AT_name("uint_fast16_t")
	.dwattr $C$DW$T$81, DW_AT_type(*$C$DW$T$24)
	.dwattr $C$DW$T$81, DW_AT_language(DW_LANG_C)
	.dwattr $C$DW$T$81, DW_AT_decl_file("c:/ti/ccsv6/tools/compiler/arm_5.1.6/include/stdint.h")
	.dwattr $C$DW$T$81, DW_AT_decl_line(0x48)
	.dwattr $C$DW$T$81, DW_AT_decl_column(0x16)
$C$DW$T$82	.dwtag  DW_TAG_typedef, DW_AT_name("uint_fast32_t")
	.dwattr $C$DW$T$82, DW_AT_type(*$C$DW$T$24)
	.dwattr $C$DW$T$82, DW_AT_language(DW_LANG_C)
	.dwattr $C$DW$T$82, DW_AT_decl_file("c:/ti/ccsv6/tools/compiler/arm_5.1.6/include/stdint.h")
	.dwattr $C$DW$T$82, DW_AT_decl_line(0x4b)
	.dwattr $C$DW$T$82, DW_AT_decl_column(0x16)
$C$DW$T$83	.dwtag  DW_TAG_typedef, DW_AT_name("uint_fast8_t")
	.dwattr $C$DW$T$83, DW_AT_type(*$C$DW$T$24)
	.dwattr $C$DW$T$83, DW_AT_language(DW_LANG_C)
	.dwattr $C$DW$T$83, DW_AT_decl_file("c:/ti/ccsv6/tools/compiler/arm_5.1.6/include/stdint.h")
	.dwattr $C$DW$T$83, DW_AT_decl_line(0x46)
	.dwattr $C$DW$T$83, DW_AT_decl_column(0x16)
$C$DW$T$84	.dwtag  DW_TAG_typedef, DW_AT_name("uint_least32_t")
	.dwattr $C$DW$T$84, DW_AT_type(*$C$DW$T$24)
	.dwattr $C$DW$T$84, DW_AT_language(DW_LANG_C)
	.dwattr $C$DW$T$84, DW_AT_decl_file("c:/ti/ccsv6/tools/compiler/arm_5.1.6/include/stdint.h")
	.dwattr $C$DW$T$84, DW_AT_decl_line(0x3d)
	.dwattr $C$DW$T$84, DW_AT_decl_column(0x16)
$C$DW$T$85	.dwtag  DW_TAG_typedef, DW_AT_name("uintptr_t")
	.dwattr $C$DW$T$85, DW_AT_type(*$C$DW$T$11)
	.dwattr $C$DW$T$85, DW_AT_language(DW_LANG_C)
	.dwattr $C$DW$T$85, DW_AT_decl_file("c:/ti/ccsv6/tools/compiler/arm_5.1.6/include/stdint.h")
	.dwattr $C$DW$T$85, DW_AT_decl_line(0x53)
	.dwattr $C$DW$T$85, DW_AT_decl_column(0x1a)
$C$DW$T$12	.dwtag  DW_TAG_base_type
	.dwattr $C$DW$T$12, DW_AT_encoding(DW_ATE_signed)
	.dwattr $C$DW$T$12, DW_AT_name("long")
	.dwattr $C$DW$T$12, DW_AT_byte_size(0x04)
$C$DW$T$86	.dwtag  DW_TAG_typedef, DW_AT_name("_Int32t")
	.dwattr $C$DW$T$86, DW_AT_type(*$C$DW$T$12)
	.dwattr $C$DW$T$86, DW_AT_language(DW_LANG_C)
	.dwattr $C$DW$T$86, DW_AT_decl_file("c:/ti/ccsv6/tools/compiler/arm_5.1.6/include/yvals.h")
	.dwattr $C$DW$T$86, DW_AT_decl_line(0xa2)
	.dwattr $C$DW$T$86, DW_AT_decl_column(0x0e)
$C$DW$T$13	.dwtag  DW_TAG_base_type
	.dwattr $C$DW$T$13, DW_AT_encoding(DW_ATE_unsigned)
	.dwattr $C$DW$T$13, DW_AT_name("unsigned long")
	.dwattr $C$DW$T$13, DW_AT_byte_size(0x04)
$C$DW$T$87	.dwtag  DW_TAG_typedef, DW_AT_name("_Uint32t")
	.dwattr $C$DW$T$87, DW_AT_type(*$C$DW$T$13)
	.dwattr $C$DW$T$87, DW_AT_language(DW_LANG_C)
	.dwattr $C$DW$T$87, DW_AT_decl_file("c:/ti/ccsv6/tools/compiler/arm_5.1.6/include/yvals.h")
	.dwattr $C$DW$T$87, DW_AT_decl_line(0xa3)
	.dwattr $C$DW$T$87, DW_AT_decl_column(0x17)
$C$DW$T$14	.dwtag  DW_TAG_base_type
	.dwattr $C$DW$T$14, DW_AT_encoding(DW_ATE_signed)
	.dwattr $C$DW$T$14, DW_AT_name("long long")
	.dwattr $C$DW$T$14, DW_AT_byte_size(0x08)
$C$DW$T$88	.dwtag  DW_TAG_typedef, DW_AT_name("_Longlong")
	.dwattr $C$DW$T$88, DW_AT_type(*$C$DW$T$14)
	.dwattr $C$DW$T$88, DW_AT_language(DW_LANG_C)
	.dwattr $C$DW$T$88, DW_AT_decl_file("c:/ti/ccsv6/tools/compiler/arm_5.1.6/include/yvals.h")
	.dwattr $C$DW$T$88, DW_AT_decl_line(0x1ce)
	.dwattr $C$DW$T$88, DW_AT_decl_column(0x13)
$C$DW$T$89	.dwtag  DW_TAG_typedef, DW_AT_name("int64_t")
	.dwattr $C$DW$T$89, DW_AT_type(*$C$DW$T$14)
	.dwattr $C$DW$T$89, DW_AT_language(DW_LANG_C)
	.dwattr $C$DW$T$89, DW_AT_decl_file("c:/ti/ccsv6/tools/compiler/arm_5.1.6/include/stdint.h")
	.dwattr $C$DW$T$89, DW_AT_decl_line(0x32)
	.dwattr $C$DW$T$89, DW_AT_decl_column(0x21)
$C$DW$T$90	.dwtag  DW_TAG_typedef, DW_AT_name("int_fast64_t")
	.dwattr $C$DW$T$90, DW_AT_type(*$C$DW$T$89)
	.dwattr $C$DW$T$90, DW_AT_language(DW_LANG_C)
	.dwattr $C$DW$T$90, DW_AT_decl_file("c:/ti/ccsv6/tools/compiler/arm_5.1.6/include/stdint.h")
	.dwattr $C$DW$T$90, DW_AT_decl_line(0x4e)
	.dwattr $C$DW$T$90, DW_AT_decl_column(0x17)
$C$DW$T$91	.dwtag  DW_TAG_typedef, DW_AT_name("int_least64_t")
	.dwattr $C$DW$T$91, DW_AT_type(*$C$DW$T$89)
	.dwattr $C$DW$T$91, DW_AT_language(DW_LANG_C)
	.dwattr $C$DW$T$91, DW_AT_decl_file("c:/ti/ccsv6/tools/compiler/arm_5.1.6/include/stdint.h")
	.dwattr $C$DW$T$91, DW_AT_decl_line(0x40)
	.dwattr $C$DW$T$91, DW_AT_decl_column(0x17)
$C$DW$T$92	.dwtag  DW_TAG_typedef, DW_AT_name("intmax_t")
	.dwattr $C$DW$T$92, DW_AT_type(*$C$DW$T$14)
	.dwattr $C$DW$T$92, DW_AT_language(DW_LANG_C)
	.dwattr $C$DW$T$92, DW_AT_decl_file("c:/ti/ccsv6/tools/compiler/arm_5.1.6/include/stdint.h")
	.dwattr $C$DW$T$92, DW_AT_decl_line(0x56)
	.dwattr $C$DW$T$92, DW_AT_decl_column(0x20)
$C$DW$T$15	.dwtag  DW_TAG_base_type
	.dwattr $C$DW$T$15, DW_AT_encoding(DW_ATE_unsigned)
	.dwattr $C$DW$T$15, DW_AT_name("unsigned long long")
	.dwattr $C$DW$T$15, DW_AT_byte_size(0x08)
$C$DW$T$93	.dwtag  DW_TAG_typedef, DW_AT_name("_ULonglong")
	.dwattr $C$DW$T$93, DW_AT_type(*$C$DW$T$15)
	.dwattr $C$DW$T$93, DW_AT_language(DW_LANG_C)
	.dwattr $C$DW$T$93, DW_AT_decl_file("c:/ti/ccsv6/tools/compiler/arm_5.1.6/include/yvals.h")
	.dwattr $C$DW$T$93, DW_AT_decl_line(0x1cf)
	.dwattr $C$DW$T$93, DW_AT_decl_column(0x14)
$C$DW$T$94	.dwtag  DW_TAG_typedef, DW_AT_name("uint64_t")
	.dwattr $C$DW$T$94, DW_AT_type(*$C$DW$T$15)
	.dwattr $C$DW$T$94, DW_AT_language(DW_LANG_C)
	.dwattr $C$DW$T$94, DW_AT_decl_file("c:/ti/ccsv6/tools/compiler/arm_5.1.6/include/stdint.h")
	.dwattr $C$DW$T$94, DW_AT_decl_line(0x33)
	.dwattr $C$DW$T$94, DW_AT_decl_column(0x20)
$C$DW$T$95	.dwtag  DW_TAG_typedef, DW_AT_name("uint_fast64_t")
	.dwattr $C$DW$T$95, DW_AT_type(*$C$DW$T$94)
	.dwattr $C$DW$T$95, DW_AT_language(DW_LANG_C)
	.dwattr $C$DW$T$95, DW_AT_decl_file("c:/ti/ccsv6/tools/compiler/arm_5.1.6/include/stdint.h")
	.dwattr $C$DW$T$95, DW_AT_decl_line(0x4f)
	.dwattr $C$DW$T$95, DW_AT_decl_column(0x16)
$C$DW$T$96	.dwtag  DW_TAG_typedef, DW_AT_name("uint_least64_t")
	.dwattr $C$DW$T$96, DW_AT_type(*$C$DW$T$94)
	.dwattr $C$DW$T$96, DW_AT_language(DW_LANG_C)
	.dwattr $C$DW$T$96, DW_AT_decl_file("c:/ti/ccsv6/tools/compiler/arm_5.1.6/include/stdint.h")
	.dwattr $C$DW$T$96, DW_AT_decl_line(0x41)
	.dwattr $C$DW$T$96, DW_AT_decl_column(0x16)
$C$DW$T$97	.dwtag  DW_TAG_typedef, DW_AT_name("uintmax_t")
	.dwattr $C$DW$T$97, DW_AT_type(*$C$DW$T$15)
	.dwattr $C$DW$T$97, DW_AT_language(DW_LANG_C)
	.dwattr $C$DW$T$97, DW_AT_decl_file("c:/ti/ccsv6/tools/compiler/arm_5.1.6/include/stdint.h")
	.dwattr $C$DW$T$97, DW_AT_decl_line(0x57)
	.dwattr $C$DW$T$97, DW_AT_decl_column(0x20)
$C$DW$T$16	.dwtag  DW_TAG_base_type
	.dwattr $C$DW$T$16, DW_AT_encoding(DW_ATE_float)
	.dwattr $C$DW$T$16, DW_AT_name("float")
	.dwattr $C$DW$T$16, DW_AT_byte_size(0x04)
$C$DW$T$17	.dwtag  DW_TAG_base_type
	.dwattr $C$DW$T$17, DW_AT_encoding(DW_ATE_float)
	.dwattr $C$DW$T$17, DW_AT_name("double")
	.dwattr $C$DW$T$17, DW_AT_byte_size(0x08)
$C$DW$T$18	.dwtag  DW_TAG_base_type
	.dwattr $C$DW$T$18, DW_AT_encoding(DW_ATE_float)
	.dwattr $C$DW$T$18, DW_AT_name("long double")
	.dwattr $C$DW$T$18, DW_AT_byte_size(0x08)
$C$DW$T$99	.dwtag  DW_TAG_typedef, DW_AT_name("_Sysch_t")
	.dwattr $C$DW$T$99, DW_AT_type(*$C$DW$T$6)
	.dwattr $C$DW$T$99, DW_AT_language(DW_LANG_C)
	.dwattr $C$DW$T$99, DW_AT_decl_file("c:/ti/ccsv6/tools/compiler/arm_5.1.6/include/yvals.h")
	.dwattr $C$DW$T$99, DW_AT_decl_line(0x23a)
	.dwattr $C$DW$T$99, DW_AT_decl_column(0x0e)

$C$DW$T$27	.dwtag  DW_TAG_structure_type
	.dwattr $C$DW$T$27, DW_AT_name("__va_list")
	.dwattr $C$DW$T$27, DW_AT_byte_size(0x04)
$C$DW$120	.dwtag  DW_TAG_member
	.dwattr $C$DW$120, DW_AT_type(*$C$DW$T$3)
	.dwattr $C$DW$120, DW_AT_name("__ap")
	.dwattr $C$DW$120, DW_AT_TI_symbol_name("__ap")
	.dwattr $C$DW$120, DW_AT_data_member_location[DW_OP_plus_uconst 0x0]
	.dwattr $C$DW$120, DW_AT_accessibility(DW_ACCESS_public)
	.dwattr $C$DW$120, DW_AT_decl_file("c:/ti/ccsv6/tools/compiler/arm_5.1.6/include/stdarg.h")
	.dwattr $C$DW$120, DW_AT_decl_line(0x32)
	.dwattr $C$DW$120, DW_AT_decl_column(0x0c)
	.dwendtag $C$DW$T$27

	.dwattr $C$DW$T$27, DW_AT_decl_file("c:/ti/ccsv6/tools/compiler/arm_5.1.6/include/stdarg.h")
	.dwattr $C$DW$T$27, DW_AT_decl_line(0x31)
	.dwattr $C$DW$T$27, DW_AT_decl_column(0x10)
$C$DW$T$100	.dwtag  DW_TAG_typedef, DW_AT_name("va_list")
	.dwattr $C$DW$T$100, DW_AT_type(*$C$DW$T$27)
	.dwattr $C$DW$T$100, DW_AT_language(DW_LANG_C)
	.dwattr $C$DW$T$100, DW_AT_decl_file("c:/ti/ccsv6/tools/compiler/arm_5.1.6/include/stdarg.h")
	.dwattr $C$DW$T$100, DW_AT_decl_line(0x33)
	.dwattr $C$DW$T$100, DW_AT_decl_column(0x03)
$C$DW$T$101	.dwtag  DW_TAG_typedef, DW_AT_name("_Va_list")
	.dwattr $C$DW$T$101, DW_AT_type(*$C$DW$T$100)
	.dwattr $C$DW$T$101, DW_AT_language(DW_LANG_C)
	.dwattr $C$DW$T$101, DW_AT_decl_file("c:/ti/ccsv6/tools/compiler/arm_5.1.6/include/yvals.h")
	.dwattr $C$DW$T$101, DW_AT_decl_line(0x218)
	.dwattr $C$DW$T$101, DW_AT_decl_column(0x17)
	.dwattr $C$DW$CU, DW_AT_language(DW_LANG_C)

;***************************************************************
;* DWARF CIE ENTRIES                                           *
;***************************************************************

$C$DW$CIE	.dwcie 14
	.dwcfi	cfa_register, 13
	.dwcfi	cfa_offset, 0
	.dwcfi	undefined, 0
	.dwcfi	undefined, 1
	.dwcfi	undefined, 2
	.dwcfi	undefined, 3
	.dwcfi	same_value, 4
	.dwcfi	same_value, 5
	.dwcfi	same_value, 6
	.dwcfi	same_value, 7
	.dwcfi	same_value, 8
	.dwcfi	same_value, 9
	.dwcfi	same_value, 10
	.dwcfi	same_value, 11
	.dwcfi	undefined, 12
	.dwcfi	undefined, 13
	.dwcfi	undefined, 14
	.dwcfi	undefined, 14
	.dwcfi	undefined, 7
	.dwcfi	undefined, 64
	.dwcfi	undefined, 65
	.dwcfi	undefined, 66
	.dwcfi	undefined, 67
	.dwcfi	undefined, 68
	.dwcfi	undefined, 69
	.dwcfi	undefined, 70
	.dwcfi	undefined, 71
	.dwcfi	undefined, 72
	.dwcfi	undefined, 73
	.dwcfi	undefined, 74
	.dwcfi	undefined, 75
	.dwcfi	undefined, 76
	.dwcfi	undefined, 77
	.dwcfi	undefined, 78
	.dwcfi	undefined, 79
	.dwcfi	same_value, 80
	.dwcfi	same_value, 81
	.dwcfi	same_value, 82
	.dwcfi	same_value, 83
	.dwcfi	same_value, 84
	.dwcfi	same_value, 85
	.dwcfi	same_value, 86
	.dwcfi	same_value, 87
	.dwcfi	same_value, 88
	.dwcfi	same_value, 89
	.dwcfi	same_value, 90
	.dwcfi	same_value, 91
	.dwcfi	same_value, 92
	.dwcfi	same_value, 93
	.dwcfi	same_value, 94
	.dwcfi	same_value, 95
	.dwendentry
	.dwendtag $C$DW$CU

